ccopy_reg
_reconstructor
p0
(ctextblob.classifiers
NaiveBayesClassifier
p1
c__builtin__
object
p2
Ntp3
Rp4
(dp5
S'format_kwargs'
p6
(dp7
sS'train_features'
p8
(lp9
((dp10
Vcontains(corporate)
p11
I00
sVcontains(gathering)
p12
I00
sVcontains(Network)
p13
I00
sVcontains(Responsibilities)
p14
I00
sVcontains(cancer)
p15
I01
sVcontains(Application)
p16
I00
sVcontains(covers)
p17
I00
sVcontains(Systems)
p18
I00
sVcontains(prediction)
p19
I01
sVcontains(PostgreSQL)
p20
I00
sVcontains(Management)
p21
I00
sVcontains(collaborators)
p22
I01
sVcontains(Helped)
p23
I00
sVcontains(Java)
p24
I00
sVcontains(play)
p25
I01
sVcontains(drug)
p26
I01
sVcontains(Directory)
p27
I00
sVcontains(Image)
p28
I01
sVcontains(Upload)
p29
I00
sVcontains(workflow)
p30
I00
sVcontains(patients.Auto)
p31
I01
sVcontains(Worked)
p32
I01
sVcontains(timely)
p33
I00
sVcontains(ofdaily)
p34
I01
sVcontains(wasconnected)
p35
I01
sVcontains(iCloud)
p36
I00
sVcontains(Biomedical)
p37
I01
sVcontains(stroke)
p38
I01
sVcontains(CRM)
p39
I00
sVcontains(well)
p40
I01
sVcontains(development)
p41
I00
sVcontains(malfunctions)
p42
I00
sVcontains(recorder)
p43
I00
sVcontains(Domino)
p44
I00
sVcontains(smartwatchSDKs)
p45
I00
sVcontains(across)
p46
I00
sVcontains(proficiency)
p47
I01
sVcontains(Account)
p48
I00
sVcontains(AJAX)
p49
I00
sVcontains(existence)
p50
I01
sVcontains(Devices)
p51
I01
sVcontains(problem)
p52
I00
sVcontains(quality)
p53
I00
sVcontains(constraints)
p54
I01
sVcontains(home)
p55
I00
sVcontains(outcomes)
p56
I01
sVcontains(applications)
p57
I00
sVcontains(Mining)
p58
I01
sVcontains(party)
p59
I00
sVcontains(You)
p60
I00
sVcontains(Administer)
p61
I00
sVcontains(stress)
p62
I01
sVcontains(responses)
p63
I01
sVcontains(infection)
p64
I00
sVcontains(necessary)
p65
I01
sVcontains(fitted)
p66
I01
sVcontains(health)
p67
I01
sVcontains(Logistics)
p68
I00
sVcontains(SDKs)
p69
I00
sVcontains(support)
p70
I00
sVcontains(Various)
p71
I00
sVcontains(pending)
p72
I00
sVcontains(This)
p73
I01
sVcontains(Certified)
p74
I00
sVcontains(matter)
p75
I00
sVcontains(paralytic)
p76
I01
sVcontains(Manager)
p77
I01
sVcontains(training)
p78
I01
sVcontains(out)
p79
I00
sVcontains(T)
p80
I00
sVcontains(reliable)
p81
I01
sVcontains(Sync)
p82
I00
sVcontains(wheel)
p83
I00
sVcontains(In)
p84
I00
sVcontains(road)
p85
I00
sVcontains(Applications)
p86
I00
sVcontains(models)
p87
I01
sVcontains(research)
p88
I01
sVcontains(prior)
p89
I00
sVcontains(Speed)
p90
I00
sVcontains(data)
p91
I01
sVcontains(attention)
p92
I00
sVcontains(beneficial)
p93
I01
sVcontains(context-aware)
p94
I00
sVcontains(contacts)
p95
I00
sVcontains(switch)
p96
I00
sVcontains(screen)
p97
I01
sVcontains(Lotus)
p98
I00
sVcontains(via)
p99
I00
sVcontains(movement)
p100
I01
sVcontains(Fit)
p101
I00
sVcontains(Configure)
p102
I00
sVcontains(therapy)
p103
I01
sVcontains(reply)
p104
I00
sVcontains(otherdepartments)
p105
I00
sVcontains(issuance.Tagged)
p106
I00
sVcontains(Gear/Gear)
p107
I00
sVcontains(memory)
p108
I01
sVcontains(charge)
p109
I00
sVcontains(visitors)
p110
I01
sVcontains(installation)
p111
I00
sVcontains(Recordrproduces)
p112
I00
sVcontains(Coordinated)
p113
I00
sVcontains(special)
p114
I00
sVcontains(Dell)
p115
I00
sVcontains(Maintain)
p116
I00
sVcontains(Evaluated)
p117
I00
sVcontains(cabling)
p118
I00
sVcontains(neural)
p119
I01
sVcontains(solutions)
p120
I00
sVcontains(andspace)
p121
I01
sVcontains(Provided)
p122
I00
sVcontains(API)
p123
I00
sVcontains(Otherfeatures)
p124
I00
sVcontains(Team)
p125
I00
sVcontains(2013)
p126
I00
sVcontains(requirements)
p127
I00
sVcontains(Active)
p128
I00
sVcontains(control)
p129
I01
sVcontains(account)
p130
I00
sVcontains(setup)
p131
I00
sVcontains(capture)
p132
I01
sVcontains(Support)
p133
I00
sVcontains(flow)
p134
I00
sVcontains(space)
p135
I00
sVcontains(voluntaryelectroencephalogram)
p136
I01
sVcontains(cost.Worked)
p137
I00
sVcontains(workstation)
p138
I00
sVcontains(diseases)
p139
I01
sVcontains(designed)
p140
I01
sVcontains(friends)
p141
I00
sVcontains(Dial)
p142
I00
sVcontains(ZeroIN)
p143
I00
sVcontains(Recordr)
p144
I00
sVcontains(office)
p145
I00
sVcontains(blue)
p146
I00
sVcontains(Renovation)
p147
I00
sVcontains(Rails)
p148
I00
sVcontains(filesto)
p149
I00
sVcontains(iPad)
p150
I00
sVcontains(Key)
p151
I00
sVcontains(Desk)
p152
I00
sVcontains(shows)
p153
I01
sVcontains(maze)
p154
I01
sVcontains(respond)
p155
I00
sVcontains(Server)
p156
I00
sVcontains(projects)
p157
I00
sVcontains(undergone)
p158
I00
sVcontains(connectivity)
p159
I00
sVcontains(chronic)
p160
I01
sVcontains(1)
p161
I00
sVcontains(user)
p162
I01
sVcontains(Integration)
p163
I00
sVcontains(media)
p164
I00
sVcontains(thatrequire)
p165
I00
sVcontains(Remedy)
p166
I00
sVcontains(resilience)
p167
I01
sVcontains(Deployment)
p168
I00
sVcontains(company)
p169
I01
sVcontains(markers)
p170
I01
sVcontains(email)
p171
I00
sVcontains(My)
p172
I01
sVcontains(Milling)
p173
I00
sVcontains(management)
p174
I00
sVcontains(XP)
p175
I00
sVcontains(Motion)
p176
I01
sVcontains(using)
p177
I01
sVcontains(Git)
p178
I00
sVcontains(assets)
p179
I00
sVcontains(Manage)
p180
I00
sVcontains(Tracking)
p181
I01
sVcontains(first)
p182
I00
sVcontains(infrastructure)
p183
I00
sVcontains(Native)
p184
I01
sVcontains(how-to\u2019s)
p185
I00
sVcontains(locally)
p186
I00
sVcontains(Presenting)
p187
I01
sVcontains(AV)
p188
I00
sVcontains(audio)
p189
I00
sVcontains(Analysis)
p190
I00
sVcontains(Badminton)
p191
I00
sVcontains(upper)
p192
I01
sVcontains(occlusion)
p193
I01
sVcontains(sides)
p194
I01
sVcontains(Acquisition)
p195
I01
sVcontains(Neuroscience)
p196
I01
sVcontains(circuit)
p197
I01
sVcontains(laptops)
p198
I00
sVcontains(minimum)
p199
I00
sVcontains(market)
p200
I01
sVcontains(basic)
p201
I01
sVcontains(asset)
p202
I00
sVcontains(Holmusk)
p203
I01
sVcontains(improve)
p204
I00
sVcontains(messaging)
p205
I00
sVcontains(Programming)
p206
I00
sVcontains(met)
p207
I00
sVcontains(update)
p208
I00
sVcontains(Global)
p209
I00
sVcontains(It)
p210
I00
sVcontains(services)
p211
I00
sVcontains(spent)
p212
I01
sVcontains(phone)
p213
I00
sVcontains(eacharm)
p214
I01
sVcontains(Supervised)
p215
I00
sVcontains(voice.RecordrDecember)
p216
I00
sVcontains(client)
p217
I00
sVcontains(Medical)
p218
I01
sVcontains(merit)
p219
I00
sVcontains(E-Mail)
p220
I00
sVcontains(5)
p221
I00
sVcontains(machine)
p222
I01
sVcontains(2010)
p223
I01
sVcontains(conservation)
p224
I01
sVcontains(recovery)
p225
I00
sVcontains(Laptops)
p226
I00
sVcontains(time)
p227
I01
sVcontains(important)
p228
I01
sVcontains(Microsoft)
p229
I01
sVcontains(daily)
p230
I01
sVcontains(requests)
p231
I00
sVcontains(relativelyshort)
p232
I01
sVcontains(employees)
p233
I00
sVcontains(IT)
p234
I00
sVcontains(andsoftware)
p235
I00
sVcontains(Share)
p236
I00
sVcontains(planning)
p237
I00
sVcontains(Enrichment)
p238
I01
sVcontains(back-end)
p239
I00
sVcontains(mySPIN)
p240
I00
sVcontains(LED)
p241
I01
sVcontains(maintain)
p242
I00
sVcontains(addressed)
p243
I01
sVcontains(room)
p244
I00
sVcontains(used)
p245
I01
sVcontains(Full)
p246
I01
sVcontains(score)
p247
I00
sVcontains(eyes)
p248
I00
sVcontains(Titanium)
p249
I00
sVcontains(connected)
p250
I01
sVcontains(future)
p251
I01
sVcontains(drivers)
p252
I00
sVcontains(Brain)
p253
I01
sVcontains(ensure)
p254
I00
sVcontains(ApplicationJanuary)
p255
I00
sVcontains(printers)
p256
I00
sVcontains(anti-virus)
p257
I00
sVcontains(layout)
p258
I00
sVcontains(REST)
p259
I00
sVcontains(end)
p260
I00
sVcontains(server)
p261
I00
sVcontains(including)
p262
I00
sVcontains(Educating)
p263
I01
sVcontains(Mobile)
p264
I00
sVcontains(Processing)
p265
I01
sVcontains(related)
p266
I00
sVcontains(event)
p267
I00
sVcontains(US.Assisted)
p268
I00
sVcontains(relevant)
p269
I01
sVcontains(Notes)
p270
I00
sVcontains(Qualysis)
p271
I01
sVcontains(analog)
p272
I01
sVcontains(satisfaction)
p273
I00
sVcontains(Received)
p274
I00
sVcontains(action)
p275
I00
sVcontains(managing)
p276
I01
sVcontains(ELVIS)
p277
I01
sVcontains(Administration)
p278
I00
sVcontains(BCI)
p279
I01
sVcontains(technician)
p280
I00
sVcontains(professional)
p281
I01
sVcontains(effectiveness)
p282
I00
sVcontains(CMG.com.ph)
p283
I00
sVcontains(users)
p284
I01
sVcontains(background)
p285
I00
sVcontains(Ion)
p286
I00
sVcontains(information)
p287
I01
sVcontains(subjects)
p288
I01
sVcontains(Office)
p289
I01
sVcontains(works.Asian)
p290
I00
sVcontains(Android)
p291
I00
sVcontains(existing)
p292
I00
sVcontains(carry)
p293
I00
sVcontains(router)
p294
I00
sVcontains(automatically)
p295
I01
sVcontains(manufacturer)
p296
I00
sVcontains(slowperformance)
p297
I00
sVcontains(Dropbox)
p298
I00
sVcontains(specialized)
p299
I00
sVcontains(bilingual)
p300
I01
sVcontains(Husbandry)
p301
I01
sVcontains(required)
p302
I00
sVcontains(includes)
p303
I00
sVcontains(seamlessoperation)
p304
I00
sVcontains(Statistics)
p305
I00
sVcontains(even)
p306
I00
sVcontains(Web/Mobile)
p307
I00
sVcontains(Experience)
p308
I00
sVcontains(creating)
p309
I01
sVcontains(PCB)
p310
I01
sVcontains(Configuredmodem)
p311
I00
sVcontains(VPN)
p312
I00
sVcontains(computer)
p313
I01
sVcontains(SLA)
p314
I00
sVcontains(DCSE)
p315
I00
sVcontains(Matlab)
p316
I01
sVcontains(Backup)
p317
I00
sVcontains(Provide)
p318
I00
sVcontains(animal)
p319
I01
sVcontains(Asian)
p320
I00
sVcontains(andimplementation)
p321
I00
sVcontains(partners)
p322
I01
sVcontains(tool)
p323
I00
sVcontains(Python)
p324
I00
sVcontains(Program)
p325
I00
sVcontains(Auto)
p326
I01
sVcontains(ableto)
p327
I01
sVcontains(Real-time)
p328
I01
sVcontains(devices)
p329
I00
sVcontains(Event)
p330
I00
sVcontains(Design)
p331
I01
sVcontains(OEM)
p332
I00
sVcontains(2009)
p333
I01
sVcontains(SmartWatch)
p334
I00
sVcontains(uses)
p335
I01
sVcontains(normal)
p336
I01
sVcontains(central)
p337
I00
sVcontains(JSON)
p338
I00
sVcontains(involved)
p339
I00
sVcontains(SOAP)
p340
I00
sVcontains(system)
p341
I01
sVcontains(resolution)
p342
I00
sVcontains(technical)
p343
I00
sVcontains(SoundCloud)
p344
I00
sVcontains(messages)
p345
I00
sVcontains(Research)
p346
I01
sVcontains(Objective-C)
p347
I00
sVcontains(systemsfor)
p348
I00
sVcontains(deploy)
p349
I00
sVcontains(hardware)
p350
I00
sVcontains(various)
p351
I00
sVcontains(Troubleshooting)
p352
I00
sVcontains(potentials)
p353
I01
sVcontains(Lisp)
p354
I00
sVcontains(identifying)
p355
I01
sVcontains(colleagues.Provide)
p356
I00
sVcontains(circuitry)
p357
I01
sVcontains(distills)
p358
I00
sVcontains(team)
p359
I00
sVcontains(movements)
p360
I01
sVcontains(Designed)
p361
I01
sVcontains(operations)
p362
I01
sVcontains(High)
p363
I00
sVcontains(actionable)
p364
I00
sVcontains(Web)
p365
I00
sVcontains(Blackberry)
p366
I00
sVcontains(documentation)
p367
I00
sVcontains(Escalated)
p368
I00
sVcontains(overseas.Manage)
p369
I00
sVcontains(vendor)
p370
I00
sVcontains(on-site)
p371
I00
sVcontains(test)
p372
I00
sVcontains(develop)
p373
I00
sVcontains(studies)
p374
I01
sVcontains(Expert)
p375
I00
sVcontains(onsite)
p376
I00
sVcontains(record)
p377
I00
sVcontains(rodents)
p378
I01
sVcontains(printer)
p379
I00
sVcontains(CMG.com.phDecember)
p380
I00
sVcontains(\u2013)
p381
I00
sVcontains(items)
p382
I00
sVcontains(events)
p383
I00
sVcontains(telehealth)
p384
I01
sVcontains(Characterization)
p385
I00
sVcontains(biomarkers)
p386
I01
sVcontains(upload)
p387
I00
sVcontains(Capture)
p388
I01
sVcontains(conducted)
p389
I01
sVcontains(LabVIEW)
p390
I01
sVcontains(laptop)
p391
I00
sVcontains(\u2014)
p392
I00
sVcontains(back)
p393
I00
sVcontains(EEG)
p394
I01
sVcontains(Take)
p395
I00
sVcontains(Drive\u2122)
p396
I00
sVcontains(information.Design)
p397
I01
sVcontains(Install)
p398
I00
sVcontains(andoffice)
p399
I00
sVcontains(The)
p400
I01
sVcontains(tackle)
p401
I01
sVcontains(4)
p402
I00
sVcontains(Toq)
p403
I00
sVcontains(2011)
p404
I01
sVcontains(spatial)
p405
I01
sVcontains(mice)
p406
I01
sVcontains(incoming)
p407
I00
sVcontains(living)
p408
I01
sVcontains(Nanofabrication)
p409
I00
sVcontains(Startup-related)
p410
I01
sVcontains(distractions)
p411
I00
sVcontains(files)
p412
I00
sVcontains(hands)
p413
I00
sVcontains(byDell)
p414
I00
sVcontains(inquiries)
p415
I00
sVcontains(iTunes)
p416
I00
sVcontains(mining)
p417
I01
sVcontains(Biology)
p418
I01
sVcontains(provisioning)
p419
I00
sVcontains(content)
p420
I00
sVcontains(Performed)
p421
I00
sVcontains(tracking)
p422
I01
sVcontains(new)
p423
I00
sVcontains(preventive)
p424
I00
sVcontains(Qualcomm)
p425
I00
sVcontains(3)
p426
I00
sVcontains(Facebook)
p427
I00
sVcontains(vendors)
p428
I00
sVcontains(interviews.SoFAB.com.phSeptember)
p429
I00
sVcontains(regionally)
p430
I00
sVcontains(chat)
p431
I00
sVcontains(analytics)
p432
I01
sVcontains(Leads)
p433
I00
sVcontains(products)
p434
I00
sVcontains(Using)
p435
I01
sVcontains(Conduct)
p436
I00
sVcontains(Common)
p437
I00
sVcontains(ITadministration)
p438
I00
sVcontains(100)
p439
I00
sVcontains(project)
p440
I00
sVcontains(Developer)
p441
I00
sVcontains(optimal)
p442
I01
sVcontains(resolved)
p443
I00
sVcontains(easiest)
p444
I00
sVcontains(standard)
p445
I00
sVcontains(Monitor)
p446
I00
sVcontains(e.g)
p447
I00
sVcontains(restrictsincoming)
p448
I00
sVcontains('Customer)
p449
I00
sVcontains(andevents)
p450
I00
sVcontains(motion)
p451
I01
sVcontains(car)
p452
I00
sVcontains(simply)
p453
I00
sVcontains(Molecular)
p454
I01
sVcontains('s)
p455
I00
sVcontains(changes)
p456
I01
sVcontains(keep)
p457
I00
sVcontains(trials)
p458
I01
sVcontains(organising)
p459
I00
sVcontains(Operations)
p460
I00
sVcontains(BMC)
p461
I00
sVcontains(overall)
p462
I00
sVcontains(Send)
p463
I00
sVcontains(what)
p464
I00
sVcontains(animals)
p465
I01
sVcontains(1st)
p466
I00
sVcontains(Samsung)
p467
I00
sVcontains(coordinated)
p468
I00
sVcontains(expansion)
p469
I00
sVcontains(personal)
p470
I00
sVcontains(Help)
p471
I00
sVcontains(allows)
p472
I00
sVcontains(detect)
p473
I01
sVcontains(8)
p474
I01
sVcontains(involvesconnecting)
p475
I01
sVcontains(innovative)
p476
I01
sVcontains(presentation)
p477
I00
sVcontains(Stay)
p478
I00
sVcontains(integration)
p479
I00
sVcontains(tickets)
p480
I00
sVcontains(awarded)
p481
I00
sVcontains(iOS)
p482
I00
sVcontains(level)
p483
I00
sVcontains(Only)
p484
I00
sVcontains(patients)
p485
I01
sVcontains(parts)
p486
I00
sVcontains(app)
p487
I00
sVcontains(processes)
p488
I00
sVcontains(video)
p489
I00
sVcontains(replacement)
p490
I00
sVcontains(service)
p491
I00
sVcontains(Windows)
p492
I00
sVcontains(December)
p493
I01
sVcontains(HTML)
p494
I00
sVcontains(Spider)
p495
I00
sVcontains(dispatch)
p496
I00
sVcontains(Labview)
p497
I01
sVcontains(configure)
p498
I00
sVcontains(drafting)
p499
I00
sVcontains(issue)
p500
I00
sVcontains(positive)
p501
I01
sVcontains(issues)
p502
I01
sVcontains(LABVIEW)
p503
I01
sVcontains(Development)
p504
I00
sVcontains(procurement)
p505
I00
sVcontains(ITIL)
p506
I00
sVcontains(Data)
p507
I01
sVcontains(Enterprise)
p508
I00
sVcontains(Club)
p509
I00
sVcontains(contain)
p510
I00
sVcontains(targeted)
p511
I01
sVcontains(7)
p512
I00
sVcontains(software)
p513
I00
sVcontains(Wear)
p514
I00
sVcontains(Services)
p515
I00
sVcontains(Interface)
p516
I01
sVcontains(updates)
p517
I00
sVcontains(electrodes)
p518
I01
sVcontains(radial)
p519
I01
sVcontains(virus)
p520
I00
sVcontains(arm)
p521
I01
sVcontains('re)
p522
I00
sVcontains(end-user)
p523
I00
sVcontains(2nd)
p524
I00
sVcontains(role)
p525
I01
sVcontains(Infrastructure)
p526
I00
sVcontains(storeroom)
p527
I00
sVcontains(jQuery)
p528
I00
sVcontains(sensors)
p529
I01
sVcontains(subscribers)
p530
I00
sVcontains(Sputtering)
p531
I00
sVcontains(I)
p532
I00
sVcontains(October)
p533
I00
sVcontains(brain)
p534
I01
sVcontains(modulation)
p535
I01
sVcontains(resilientmodels)
p536
I01
sVcontains(you)
p537
I00
sVcontains(requires)
p538
I01
sVcontains(presentations)
p539
I01
sVcontains(visuallyevoked)
p540
I01
sVcontains(JavaScript)
p541
I00
sVcontains(signalingetc)
p542
I01
sVcontains(AT)
p543
I00
sVcontains(iWatch)
p544
I00
sVcontains(Citrix)
p545
I00
sVcontains(equipment)
p546
I00
sVcontains(Pebble)
p547
I00
sVcontains(learningand)
p548
I01
sVcontains(renovation)
p549
I00
sVcontains(Computer)
p550
I01
sVcontains(greatly)
p551
I01
sVcontains(perform)
p552
I01
sVcontains(Present)
p553
I00
sVcontains(Photoshop)
p554
I01
sVcontains(teams)
p555
I00
sVcontains(smartphoneto)
p556
I00
sVcontains(two)
p557
I01
sVcontains(analysis)
p558
I01
sVcontains(performing)
p559
I01
sVcontains(Architect)
p560
I00
sVcontains(glowing)
p561
I01
sVcontains(automaticallysync)
p562
I00
sVcontains(Assist)
p563
I00
sVcontains(conferencing)
p564
I00
sVcontains(toidentify)
p565
I01
sVcontains(LAN/WAN)
p566
I00
sVcontains(Managed)
p567
I00
sVcontains(safely)
p568
I00
sVcontains(Ruby)
p569
I00
sVcontains(stable)
p570
I01
sVcontains(organisation)
p571
I00
sVcontains(Excel)
p572
I01
sVcontains(3rd)
p573
I00
sVcontains(desktop)
p574
I00
sVcontains(May)
p575
I01
sVcontains(SoFAB)
p576
I00
sVcontains(researchand)
p577
I01
sVcontains(Technical)
p578
I00
sVcontains(Training)
p579
I00
sVcontains(tasks)
p580
I01
sVcontains(IR)
p581
I01
sVcontains(entry)
p582
I01
sVcontains(platform)
p583
I01
sVcontains(2012)
p584
I00
sVcontains(tokeep)
p585
I00
sVcontains(Hardware)
p586
I00
sVcontains(interfacing)
p587
I01
sVcontains(within)
p588
I00
sVcontains(logistics)
p589
I00
sVcontains(activities)
p590
I01
sVcontains(native)
p591
I00
sVcontains(maze.We)
p592
I01
sVcontains(likeupgrades)
p593
I00
sVcontains(systemTear)
p594
I00
sVcontains(Coach)
p595
I00
sVcontains(Functional)
p596
I01
sVcontains(Photolithography)
p597
I00
sVcontains(read)
p598
I00
sVcontains(screens)
p599
I00
sVcontains(Engineering)
p600
I01
sVcontains(limb)
p601
I01
sVcontains(researchers)
p602
I01
sVcontains(Operating)
p603
I00
sVcontains(analysisMarch)
p604
I01
sVcontains(mouse)
p605
I01
sVcontains(in)
p606
I00
sVcontains(Handled)
p607
I00
sVcontains(Service)
p608
I00
sVcontains(train)
p609
I01
sVcontains(Collaborate)
p610
I00
sVcontains(network)
p611
I00
sVcontains(Biomaterials)
p612
I01
sVcontains(recordings)
p613
I00
sVcontains(2)
p614
I00
sVcontains(System)
p615
I00
sVcontains(ITteams)
p616
I00
sVcontains(Ops)
p617
I01
sVcontains(high)
p618
I00
sVcontains(Installation)
p619
I00
sVcontains(SoFAB.com.ph)
p620
I00
sVcontains(Exchange)
p621
I00
sVcontains(processed)
p622
I00
sVcontains(Sony)
p623
I00
sVcontains(design)
p624
I00
sVcontains(resulting)
p625
I00
sVcontains(provide)
p626
I01
sVcontains(Google)
p627
I00
sVcontains(deployment.Imaged)
p628
I00
sVcontains(voice)
p629
I00
sVcontains(Mobile/Web)
p630
I00
sVcontains(maintenance)
p631
I00
sVcontains(find)
p632
I00
sVcontains(audio/sound/voice)
p633
I00
sVcontains(Vista)
p634
I00
sVcontains(Software)
p635
I00
sVcontains(EventOctober)
p636
I00
sVcontains(backend)
p637
I00
sVcontains(visualization)
p638
I01
sVcontains(intelligent)
p639
I00
sVcontains(relationship)
p640
I00
sVcontains(constructed)
p641
I01
sVcontains(track)
p642
I01
sVcontains(toapproprieate)
p643
I00
sVcontains(influence)
p644
I01
sVcontains(customer)
p645
I00
sS'2'
p646
tp647
a((dp648
Vcontains(corporate)
p649
I01
sVcontains(gathering)
p650
I01
sVcontains(Network)
p651
I01
sVcontains(Responsibilities)
p652
I01
sVcontains(cancer)
p653
I00
sVcontains(Application)
p654
I00
sVcontains(covers)
p655
I01
sVcontains(Systems)
p656
I01
sVcontains(prediction)
p657
I00
sVcontains(PostgreSQL)
p658
I00
sVcontains(Management)
p659
I01
sVcontains(collaborators)
p660
I00
sVcontains(Helped)
p661
I01
sVcontains(Java)
p662
I00
sVcontains(play)
p663
I00
sVcontains(drug)
p664
I00
sVcontains(Directory)
p665
I01
sVcontains(Image)
p666
I00
sVcontains(Upload)
p667
I00
sVcontains(workflow)
p668
I01
sVcontains(patients.Auto)
p669
I00
sVcontains(Worked)
p670
I00
sVcontains(timely)
p671
I01
sVcontains(ofdaily)
p672
I00
sVcontains(wasconnected)
p673
I00
sVcontains(iCloud)
p674
I00
sVcontains(Biomedical)
p675
I00
sVcontains(stroke)
p676
I00
sVcontains(CRM)
p677
I01
sVcontains(well)
p678
I01
sVcontains(development)
p679
I00
sVcontains(malfunctions)
p680
I01
sVcontains(recorder)
p681
I00
sVcontains(Domino)
p682
I01
sVcontains(smartwatchSDKs)
p683
I00
sVcontains(across)
p684
I00
sVcontains(proficiency)
p685
I00
sVcontains(Account)
p686
I00
sVcontains(AJAX)
p687
I00
sVcontains(existence)
p688
I00
sVcontains(Devices)
p689
I00
sVcontains(problem)
p690
I01
sVcontains(quality)
p691
I01
sVcontains(constraints)
p692
I00
sVcontains(home)
p693
I01
sVcontains(outcomes)
p694
I00
sVcontains(applications)
p695
I01
sVcontains(Mining)
p696
I00
sVcontains(party)
p697
I01
sVcontains(You)
p698
I00
sVcontains(Administer)
p699
I01
sVcontains(stress)
p700
I00
sVcontains(responses)
p701
I00
sVcontains(infection)
p702
I01
sVcontains(necessary)
p703
I00
sVcontains(fitted)
p704
I00
sVcontains(health)
p705
I00
sVcontains(Logistics)
p706
I01
sVcontains(SDKs)
p707
I00
sVcontains(support)
p708
I01
sVcontains(Various)
p709
I00
sVcontains(pending)
p710
I00
sVcontains(This)
p711
I00
sVcontains(Certified)
p712
I01
sVcontains(matter)
p713
I00
sVcontains(paralytic)
p714
I00
sVcontains(Manager)
p715
I00
sVcontains(training)
p716
I01
sVcontains(out)
p717
I00
sVcontains(T)
p718
I01
sVcontains(reliable)
p719
I00
sVcontains(Sync)
p720
I00
sVcontains(wheel)
p721
I00
sVcontains(In)
p722
I01
sVcontains(road)
p723
I00
sVcontains(Applications)
p724
I00
sVcontains(models)
p725
I00
sVcontains(research)
p726
I00
sVcontains(prior)
p727
I01
sVcontains(Speed)
p728
I01
sVcontains(data)
p729
I01
sVcontains(attention)
p730
I00
sVcontains(beneficial)
p731
I00
sVcontains(context-aware)
p732
I00
sVcontains(contacts)
p733
I00
sVcontains(switch)
p734
I01
sVcontains(screen)
p735
I00
sVcontains(Lotus)
p736
I01
sVcontains(via)
p737
I01
sVcontains(movement)
p738
I00
sVcontains(Fit)
p739
I00
sVcontains(Configure)
p740
I01
sVcontains(therapy)
p741
I00
sVcontains(reply)
p742
I00
sVcontains(otherdepartments)
p743
I01
sVcontains(issuance.Tagged)
p744
I01
sVcontains(Gear/Gear)
p745
I00
sVcontains(memory)
p746
I00
sVcontains(charge)
p747
I01
sVcontains(visitors)
p748
I00
sVcontains(installation)
p749
I01
sVcontains(Recordrproduces)
p750
I00
sVcontains(Coordinated)
p751
I01
sVcontains(special)
p752
I01
sVcontains(Dell)
p753
I01
sVcontains(Maintain)
p754
I01
sVcontains(Evaluated)
p755
I01
sVcontains(cabling)
p756
I01
sVcontains(neural)
p757
I00
sVcontains(solutions)
p758
I01
sVcontains(andspace)
p759
I00
sVcontains(Provided)
p760
I01
sVcontains(API)
p761
I00
sVcontains(Otherfeatures)
p762
I00
sVcontains(Team)
p763
I00
sVcontains(2013)
p764
I01
sVcontains(requirements)
p765
I01
sVcontains(Active)
p766
I01
sVcontains(control)
p767
I00
sVcontains(account)
p768
I00
sVcontains(setup)
p769
I01
sVcontains(capture)
p770
I00
sVcontains(Support)
p771
I01
sVcontains(flow)
p772
I01
sVcontains(space)
p773
I01
sVcontains(voluntaryelectroencephalogram)
p774
I00
sVcontains(cost.Worked)
p775
I01
sVcontains(workstation)
p776
I01
sVcontains(diseases)
p777
I00
sVcontains(designed)
p778
I00
sVcontains(friends)
p779
I00
sVcontains(Dial)
p780
I01
sVcontains(ZeroIN)
p781
I00
sVcontains(Recordr)
p782
I00
sVcontains(office)
p783
I01
sVcontains(blue)
p784
I01
sVcontains(Renovation)
p785
I01
sVcontains(Rails)
p786
I00
sVcontains(filesto)
p787
I00
sVcontains(iPad)
p788
I00
sVcontains(Key)
p789
I01
sVcontains(Desk)
p790
I01
sVcontains(shows)
p791
I00
sVcontains(maze)
p792
I00
sVcontains(respond)
p793
I00
sVcontains(Server)
p794
I01
sVcontains(projects)
p795
I01
sVcontains(undergone)
p796
I01
sVcontains(connectivity)
p797
I01
sVcontains(chronic)
p798
I00
sVcontains(1)
p799
I00
sVcontains(user)
p800
I01
sVcontains(Integration)
p801
I00
sVcontains(media)
p802
I00
sVcontains(thatrequire)
p803
I00
sVcontains(Remedy)
p804
I01
sVcontains(resilience)
p805
I00
sVcontains(Deployment)
p806
I01
sVcontains(company)
p807
I00
sVcontains(markers)
p808
I00
sVcontains(email)
p809
I01
sVcontains(My)
p810
I00
sVcontains(Milling)
p811
I00
sVcontains(management)
p812
I01
sVcontains(XP)
p813
I01
sVcontains(Motion)
p814
I00
sVcontains(using)
p815
I00
sVcontains(Git)
p816
I00
sVcontains(assets)
p817
I01
sVcontains(Manage)
p818
I01
sVcontains(Tracking)
p819
I00
sVcontains(first)
p820
I00
sVcontains(infrastructure)
p821
I01
sVcontains(Native)
p822
I00
sVcontains(how-to\u2019s)
p823
I01
sVcontains(locally)
p824
I01
sVcontains(Presenting)
p825
I00
sVcontains(AV)
p826
I01
sVcontains(audio)
p827
I01
sVcontains(Analysis)
p828
I00
sVcontains(Badminton)
p829
I00
sVcontains(upper)
p830
I00
sVcontains(occlusion)
p831
I00
sVcontains(sides)
p832
I00
sVcontains(Acquisition)
p833
I00
sVcontains(Neuroscience)
p834
I00
sVcontains(circuit)
p835
I00
sVcontains(laptops)
p836
I01
sVcontains(minimum)
p837
I00
sVcontains(market)
p838
I00
sVcontains(basic)
p839
I01
sVcontains(asset)
p840
I01
sVcontains(Holmusk)
p841
I00
sVcontains(improve)
p842
I01
sVcontains(messaging)
p843
I00
sVcontains(Programming)
p844
I00
sVcontains(met)
p845
I01
sVcontains(update)
p846
I01
sVcontains(Global)
p847
I01
sVcontains(It)
p848
I00
sVcontains(services)
p849
I01
sVcontains(spent)
p850
I00
sVcontains(phone)
p851
I01
sVcontains(eacharm)
p852
I00
sVcontains(Supervised)
p853
I01
sVcontains(voice.RecordrDecember)
p854
I00
sVcontains(client)
p855
I01
sVcontains(Medical)
p856
I00
sVcontains(merit)
p857
I00
sVcontains(E-Mail)
p858
I00
sVcontains(5)
p859
I00
sVcontains(machine)
p860
I00
sVcontains(2010)
p861
I00
sVcontains(conservation)
p862
I00
sVcontains(recovery)
p863
I01
sVcontains(Laptops)
p864
I01
sVcontains(time)
p865
I00
sVcontains(important)
p866
I00
sVcontains(Microsoft)
p867
I01
sVcontains(daily)
p868
I00
sVcontains(requests)
p869
I01
sVcontains(relativelyshort)
p870
I00
sVcontains(employees)
p871
I01
sVcontains(IT)
p872
I01
sVcontains(andsoftware)
p873
I01
sVcontains(Share)
p874
I00
sVcontains(planning)
p875
I01
sVcontains(Enrichment)
p876
I00
sVcontains(back-end)
p877
I01
sVcontains(mySPIN)
p878
I00
sVcontains(LED)
p879
I00
sVcontains(maintain)
p880
I01
sVcontains(addressed)
p881
I00
sVcontains(room)
p882
I01
sVcontains(used)
p883
I00
sVcontains(Full)
p884
I00
sVcontains(score)
p885
I01
sVcontains(eyes)
p886
I00
sVcontains(Titanium)
p887
I00
sVcontains(connected)
p888
I00
sVcontains(future)
p889
I00
sVcontains(drivers)
p890
I00
sVcontains(Brain)
p891
I00
sVcontains(ensure)
p892
I01
sVcontains(ApplicationJanuary)
p893
I00
sVcontains(printers)
p894
I01
sVcontains(anti-virus)
p895
I01
sVcontains(layout)
p896
I01
sVcontains(REST)
p897
I00
sVcontains(end)
p898
I01
sVcontains(server)
p899
I01
sVcontains(including)
p900
I01
sVcontains(Educating)
p901
I00
sVcontains(Mobile)
p902
I00
sVcontains(Processing)
p903
I00
sVcontains(related)
p904
I01
sVcontains(event)
p905
I01
sVcontains(US.Assisted)
p906
I01
sVcontains(relevant)
p907
I00
sVcontains(Notes)
p908
I01
sVcontains(Qualysis)
p909
I00
sVcontains(analog)
p910
I00
sVcontains(satisfaction)
p911
I01
sVcontains(Received)
p912
I01
sVcontains(action)
p913
I00
sVcontains(managing)
p914
I00
sVcontains(ELVIS)
p915
I00
sVcontains(Administration)
p916
I01
sVcontains(BCI)
p917
I00
sVcontains(technician)
p918
I01
sVcontains(professional)
p919
I00
sVcontains(effectiveness)
p920
I01
sVcontains(CMG.com.ph)
p921
I00
sVcontains(users)
p922
I01
sVcontains(background)
p923
I00
sVcontains(Ion)
p924
I00
sVcontains(information)
p925
I00
sVcontains(subjects)
p926
I00
sVcontains(Office)
p927
I01
sVcontains(works.Asian)
p928
I01
sVcontains(Android)
p929
I01
sVcontains(existing)
p930
I01
sVcontains(carry)
p931
I01
sVcontains(router)
p932
I01
sVcontains(automatically)
p933
I00
sVcontains(manufacturer)
p934
I00
sVcontains(slowperformance)
p935
I01
sVcontains(Dropbox)
p936
I00
sVcontains(specialized)
p937
I01
sVcontains(bilingual)
p938
I00
sVcontains(Husbandry)
p939
I00
sVcontains(required)
p940
I01
sVcontains(includes)
p941
I01
sVcontains(seamlessoperation)
p942
I01
sVcontains(Statistics)
p943
I00
sVcontains(even)
p944
I00
sVcontains(Web/Mobile)
p945
I00
sVcontains(Experience)
p946
I01
sVcontains(creating)
p947
I00
sVcontains(PCB)
p948
I00
sVcontains(Configuredmodem)
p949
I01
sVcontains(VPN)
p950
I01
sVcontains(computer)
p951
I01
sVcontains(SLA)
p952
I01
sVcontains(DCSE)
p953
I01
sVcontains(Matlab)
p954
I00
sVcontains(Backup)
p955
I00
sVcontains(Provide)
p956
I01
sVcontains(animal)
p957
I00
sVcontains(Asian)
p958
I01
sVcontains(andimplementation)
p959
I01
sVcontains(partners)
p960
I00
sVcontains(tool)
p961
I01
sVcontains(Python)
p962
I00
sVcontains(Program)
p963
I01
sVcontains(Auto)
p964
I00
sVcontains(ableto)
p965
I00
sVcontains(Real-time)
p966
I00
sVcontains(devices)
p967
I00
sVcontains(Event)
p968
I01
sVcontains(Design)
p969
I00
sVcontains(OEM)
p970
I01
sVcontains(2009)
p971
I00
sVcontains(SmartWatch)
p972
I00
sVcontains(uses)
p973
I00
sVcontains(normal)
p974
I00
sVcontains(central)
p975
I01
sVcontains(JSON)
p976
I00
sVcontains(involved)
p977
I01
sVcontains(SOAP)
p978
I00
sVcontains(system)
p979
I00
sVcontains(resolution)
p980
I01
sVcontains(technical)
p981
I01
sVcontains(SoundCloud)
p982
I00
sVcontains(messages)
p983
I00
sVcontains(Research)
p984
I00
sVcontains(Objective-C)
p985
I00
sVcontains(systemsfor)
p986
I01
sVcontains(deploy)
p987
I01
sVcontains(hardware)
p988
I01
sVcontains(various)
p989
I01
sVcontains(Troubleshooting)
p990
I01
sVcontains(potentials)
p991
I00
sVcontains(Lisp)
p992
I00
sVcontains(identifying)
p993
I00
sVcontains(colleagues.Provide)
p994
I01
sVcontains(circuitry)
p995
I00
sVcontains(distills)
p996
I00
sVcontains(team)
p997
I01
sVcontains(movements)
p998
I00
sVcontains(Designed)
p999
I00
sVcontains(operations)
p1000
I01
sVcontains(High)
p1001
I01
sVcontains(actionable)
p1002
I00
sVcontains(Web)
p1003
I00
sVcontains(Blackberry)
p1004
I01
sVcontains(documentation)
p1005
I01
sVcontains(Escalated)
p1006
I01
sVcontains(overseas.Manage)
p1007
I01
sVcontains(vendor)
p1008
I01
sVcontains(on-site)
p1009
I01
sVcontains(test)
p1010
I01
sVcontains(develop)
p1011
I01
sVcontains(studies)
p1012
I00
sVcontains(Expert)
p1013
I01
sVcontains(onsite)
p1014
I01
sVcontains(record)
p1015
I00
sVcontains(rodents)
p1016
I00
sVcontains(printer)
p1017
I01
sVcontains(CMG.com.phDecember)
p1018
I00
sVcontains(\u2013)
p1019
I00
sVcontains(items)
p1020
I00
sVcontains(events)
p1021
I01
sVcontains(telehealth)
p1022
I00
sVcontains(Characterization)
p1023
I00
sVcontains(biomarkers)
p1024
I00
sVcontains(upload)
p1025
I01
sVcontains(Capture)
p1026
I00
sVcontains(conducted)
p1027
I00
sVcontains(LabVIEW)
p1028
I00
sVcontains(laptop)
p1029
I01
sVcontains(\u2014)
p1030
I00
sVcontains(back)
p1031
I01
sVcontains(EEG)
p1032
I00
sVcontains(Take)
p1033
I00
sVcontains(Drive\u2122)
p1034
I00
sVcontains(information.Design)
p1035
I00
sVcontains(Install)
p1036
I01
sVcontains(andoffice)
p1037
I01
sVcontains(The)
p1038
I01
sVcontains(tackle)
p1039
I00
sVcontains(4)
p1040
I00
sVcontains(Toq)
p1041
I00
sVcontains(2011)
p1042
I00
sVcontains(spatial)
p1043
I00
sVcontains(mice)
p1044
I00
sVcontains(incoming)
p1045
I00
sVcontains(living)
p1046
I00
sVcontains(Nanofabrication)
p1047
I00
sVcontains(Startup-related)
p1048
I00
sVcontains(distractions)
p1049
I00
sVcontains(files)
p1050
I00
sVcontains(hands)
p1051
I00
sVcontains(byDell)
p1052
I01
sVcontains(inquiries)
p1053
I01
sVcontains(iTunes)
p1054
I00
sVcontains(mining)
p1055
I00
sVcontains(Biology)
p1056
I00
sVcontains(provisioning)
p1057
I01
sVcontains(content)
p1058
I00
sVcontains(Performed)
p1059
I01
sVcontains(tracking)
p1060
I01
sVcontains(new)
p1061
I01
sVcontains(preventive)
p1062
I01
sVcontains(Qualcomm)
p1063
I00
sVcontains(3)
p1064
I00
sVcontains(Facebook)
p1065
I00
sVcontains(vendors)
p1066
I01
sVcontains(interviews.SoFAB.com.phSeptember)
p1067
I00
sVcontains(regionally)
p1068
I01
sVcontains(chat)
p1069
I01
sVcontains(analytics)
p1070
I00
sVcontains(Leads)
p1071
I01
sVcontains(products)
p1072
I01
sVcontains(Using)
p1073
I00
sVcontains(Conduct)
p1074
I01
sVcontains(Common)
p1075
I00
sVcontains(ITadministration)
p1076
I01
sVcontains(100)
p1077
I01
sVcontains(project)
p1078
I01
sVcontains(Developer)
p1079
I00
sVcontains(optimal)
p1080
I00
sVcontains(resolved)
p1081
I01
sVcontains(easiest)
p1082
I00
sVcontains(standard)
p1083
I01
sVcontains(Monitor)
p1084
I01
sVcontains(e.g)
p1085
I01
sVcontains(restrictsincoming)
p1086
I00
sVcontains('Customer)
p1087
I00
sVcontains(andevents)
p1088
I01
sVcontains(motion)
p1089
I00
sVcontains(car)
p1090
I00
sVcontains(simply)
p1091
I00
sVcontains(Molecular)
p1092
I00
sVcontains('s)
p1093
I00
sVcontains(changes)
p1094
I00
sVcontains(keep)
p1095
I00
sVcontains(trials)
p1096
I00
sVcontains(organising)
p1097
I01
sVcontains(Operations)
p1098
I01
sVcontains(BMC)
p1099
I01
sVcontains(overall)
p1100
I01
sVcontains(Send)
p1101
I00
sVcontains(what)
p1102
I00
sVcontains(animals)
p1103
I00
sVcontains(1st)
p1104
I01
sVcontains(Samsung)
p1105
I00
sVcontains(coordinated)
p1106
I01
sVcontains(expansion)
p1107
I01
sVcontains(personal)
p1108
I00
sVcontains(Help)
p1109
I01
sVcontains(allows)
p1110
I00
sVcontains(detect)
p1111
I00
sVcontains(8)
p1112
I00
sVcontains(involvesconnecting)
p1113
I00
sVcontains(innovative)
p1114
I00
sVcontains(presentation)
p1115
I01
sVcontains(Stay)
p1116
I00
sVcontains(integration)
p1117
I00
sVcontains(tickets)
p1118
I01
sVcontains(awarded)
p1119
I01
sVcontains(iOS)
p1120
I01
sVcontains(level)
p1121
I01
sVcontains(Only)
p1122
I00
sVcontains(patients)
p1123
I00
sVcontains(parts)
p1124
I01
sVcontains(app)
p1125
I00
sVcontains(processes)
p1126
I01
sVcontains(video)
p1127
I01
sVcontains(replacement)
p1128
I01
sVcontains(service)
p1129
I01
sVcontains(Windows)
p1130
I01
sVcontains(December)
p1131
I00
sVcontains(HTML)
p1132
I00
sVcontains(Spider)
p1133
I01
sVcontains(dispatch)
p1134
I01
sVcontains(Labview)
p1135
I00
sVcontains(configure)
p1136
I01
sVcontains(drafting)
p1137
I01
sVcontains(issue)
p1138
I01
sVcontains(positive)
p1139
I00
sVcontains(issues)
p1140
I01
sVcontains(LABVIEW)
p1141
I00
sVcontains(Development)
p1142
I00
sVcontains(procurement)
p1143
I01
sVcontains(ITIL)
p1144
I01
sVcontains(Data)
p1145
I00
sVcontains(Enterprise)
p1146
I01
sVcontains(Club)
p1147
I01
sVcontains(contain)
p1148
I00
sVcontains(targeted)
p1149
I00
sVcontains(7)
p1150
I01
sVcontains(software)
p1151
I01
sVcontains(Wear)
p1152
I00
sVcontains(Services)
p1153
I01
sVcontains(Interface)
p1154
I00
sVcontains(updates)
p1155
I01
sVcontains(electrodes)
p1156
I00
sVcontains(radial)
p1157
I00
sVcontains(virus)
p1158
I01
sVcontains(arm)
p1159
I00
sVcontains('re)
p1160
I00
sVcontains(end-user)
p1161
I01
sVcontains(2nd)
p1162
I01
sVcontains(role)
p1163
I00
sVcontains(Infrastructure)
p1164
I01
sVcontains(storeroom)
p1165
I01
sVcontains(jQuery)
p1166
I00
sVcontains(sensors)
p1167
I00
sVcontains(subscribers)
p1168
I01
sVcontains(Sputtering)
p1169
I00
sVcontains(I)
p1170
I01
sVcontains(October)
p1171
I01
sVcontains(brain)
p1172
I00
sVcontains(modulation)
p1173
I00
sVcontains(resilientmodels)
p1174
I00
sVcontains(you)
p1175
I00
sVcontains(requires)
p1176
I00
sVcontains(presentations)
p1177
I00
sVcontains(visuallyevoked)
p1178
I00
sVcontains(JavaScript)
p1179
I00
sVcontains(signalingetc)
p1180
I00
sVcontains(AT)
p1181
I01
sVcontains(iWatch)
p1182
I00
sVcontains(Citrix)
p1183
I01
sVcontains(equipment)
p1184
I01
sVcontains(Pebble)
p1185
I00
sVcontains(learningand)
p1186
I00
sVcontains(renovation)
p1187
I01
sVcontains(Computer)
p1188
I01
sVcontains(greatly)
p1189
I00
sVcontains(perform)
p1190
I00
sVcontains(Present)
p1191
I00
sVcontains(Photoshop)
p1192
I00
sVcontains(teams)
p1193
I01
sVcontains(smartphoneto)
p1194
I00
sVcontains(two)
p1195
I00
sVcontains(analysis)
p1196
I00
sVcontains(performing)
p1197
I00
sVcontains(Architect)
p1198
I00
sVcontains(glowing)
p1199
I00
sVcontains(automaticallysync)
p1200
I00
sVcontains(Assist)
p1201
I01
sVcontains(conferencing)
p1202
I01
sVcontains(toidentify)
p1203
I00
sVcontains(LAN/WAN)
p1204
I01
sVcontains(Managed)
p1205
I01
sVcontains(safely)
p1206
I00
sVcontains(Ruby)
p1207
I00
sVcontains(stable)
p1208
I00
sVcontains(organisation)
p1209
I01
sVcontains(Excel)
p1210
I00
sVcontains(3rd)
p1211
I01
sVcontains(desktop)
p1212
I01
sVcontains(May)
p1213
I00
sVcontains(SoFAB)
p1214
I00
sVcontains(researchand)
p1215
I00
sVcontains(Technical)
p1216
I01
sVcontains(Training)
p1217
I01
sVcontains(tasks)
p1218
I00
sVcontains(IR)
p1219
I00
sVcontains(entry)
p1220
I00
sVcontains(platform)
p1221
I00
sVcontains(2012)
p1222
I01
sVcontains(tokeep)
p1223
I00
sVcontains(Hardware)
p1224
I01
sVcontains(interfacing)
p1225
I00
sVcontains(within)
p1226
I01
sVcontains(logistics)
p1227
I01
sVcontains(activities)
p1228
I00
sVcontains(native)
p1229
I00
sVcontains(maze.We)
p1230
I00
sVcontains(likeupgrades)
p1231
I01
sVcontains(systemTear)
p1232
I01
sVcontains(Coach)
p1233
I01
sVcontains(Functional)
p1234
I00
sVcontains(Photolithography)
p1235
I00
sVcontains(read)
p1236
I00
sVcontains(screens)
p1237
I01
sVcontains(Engineering)
p1238
I00
sVcontains(limb)
p1239
I00
sVcontains(researchers)
p1240
I00
sVcontains(Operating)
p1241
I01
sVcontains(analysisMarch)
p1242
I00
sVcontains(mouse)
p1243
I00
sVcontains(in)
p1244
I00
sVcontains(Handled)
p1245
I01
sVcontains(Service)
p1246
I01
sVcontains(train)
p1247
I00
sVcontains(Collaborate)
p1248
I01
sVcontains(network)
p1249
I01
sVcontains(Biomaterials)
p1250
I00
sVcontains(recordings)
p1251
I00
sVcontains(2)
p1252
I00
sVcontains(System)
p1253
I01
sVcontains(ITteams)
p1254
I01
sVcontains(Ops)
p1255
I00
sVcontains(high)
p1256
I01
sVcontains(Installation)
p1257
I01
sVcontains(SoFAB.com.ph)
p1258
I00
sVcontains(Exchange)
p1259
I01
sVcontains(processed)
p1260
I01
sVcontains(Sony)
p1261
I00
sVcontains(design)
p1262
I01
sVcontains(resulting)
p1263
I01
sVcontains(provide)
p1264
I01
sVcontains(Google)
p1265
I00
sVcontains(deployment.Imaged)
p1266
I01
sVcontains(voice)
p1267
I00
sVcontains(Mobile/Web)
p1268
I00
sVcontains(maintenance)
p1269
I01
sVcontains(find)
p1270
I00
sVcontains(audio/sound/voice)
p1271
I00
sVcontains(Vista)
p1272
I01
sVcontains(Software)
p1273
I01
sVcontains(EventOctober)
p1274
I01
sVcontains(backend)
p1275
I01
sVcontains(visualization)
p1276
I00
sVcontains(intelligent)
p1277
I00
sVcontains(relationship)
p1278
I01
sVcontains(constructed)
p1279
I00
sVcontains(track)
p1280
I00
sVcontains(toapproprieate)
p1281
I01
sVcontains(influence)
p1282
I00
sVcontains(customer)
p1283
I01
sS'3'
p1284
tp1285
a((dp1286
Vcontains(corporate)
p1287
I00
sVcontains(gathering)
p1288
I00
sVcontains(Network)
p1289
I00
sVcontains(Responsibilities)
p1290
I00
sVcontains(cancer)
p1291
I00
sVcontains(Application)
p1292
I00
sVcontains(covers)
p1293
I00
sVcontains(Systems)
p1294
I00
sVcontains(prediction)
p1295
I00
sVcontains(PostgreSQL)
p1296
I00
sVcontains(Management)
p1297
I00
sVcontains(collaborators)
p1298
I00
sVcontains(Helped)
p1299
I00
sVcontains(Java)
p1300
I01
sVcontains(play)
p1301
I00
sVcontains(drug)
p1302
I00
sVcontains(Directory)
p1303
I00
sVcontains(Image)
p1304
I00
sVcontains(Upload)
p1305
I00
sVcontains(workflow)
p1306
I00
sVcontains(patients.Auto)
p1307
I00
sVcontains(Worked)
p1308
I00
sVcontains(timely)
p1309
I00
sVcontains(ofdaily)
p1310
I00
sVcontains(wasconnected)
p1311
I00
sVcontains(iCloud)
p1312
I00
sVcontains(Biomedical)
p1313
I00
sVcontains(stroke)
p1314
I00
sVcontains(CRM)
p1315
I00
sVcontains(well)
p1316
I00
sVcontains(development)
p1317
I00
sVcontains(malfunctions)
p1318
I00
sVcontains(recorder)
p1319
I00
sVcontains(Domino)
p1320
I00
sVcontains(smartwatchSDKs)
p1321
I00
sVcontains(across)
p1322
I00
sVcontains(proficiency)
p1323
I00
sVcontains(Account)
p1324
I00
sVcontains(AJAX)
p1325
I00
sVcontains(existence)
p1326
I00
sVcontains(Devices)
p1327
I00
sVcontains(problem)
p1328
I00
sVcontains(quality)
p1329
I00
sVcontains(constraints)
p1330
I00
sVcontains(home)
p1331
I00
sVcontains(outcomes)
p1332
I00
sVcontains(applications)
p1333
I00
sVcontains(Mining)
p1334
I00
sVcontains(party)
p1335
I00
sVcontains(You)
p1336
I00
sVcontains(Administer)
p1337
I00
sVcontains(stress)
p1338
I00
sVcontains(responses)
p1339
I00
sVcontains(infection)
p1340
I00
sVcontains(necessary)
p1341
I00
sVcontains(fitted)
p1342
I00
sVcontains(health)
p1343
I00
sVcontains(Logistics)
p1344
I00
sVcontains(SDKs)
p1345
I00
sVcontains(support)
p1346
I00
sVcontains(Various)
p1347
I00
sVcontains(pending)
p1348
I00
sVcontains(This)
p1349
I00
sVcontains(Certified)
p1350
I00
sVcontains(matter)
p1351
I00
sVcontains(paralytic)
p1352
I00
sVcontains(Manager)
p1353
I00
sVcontains(training)
p1354
I00
sVcontains(out)
p1355
I00
sVcontains(T)
p1356
I00
sVcontains(reliable)
p1357
I00
sVcontains(Sync)
p1358
I00
sVcontains(wheel)
p1359
I00
sVcontains(In)
p1360
I00
sVcontains(road)
p1361
I00
sVcontains(Applications)
p1362
I00
sVcontains(models)
p1363
I00
sVcontains(research)
p1364
I00
sVcontains(prior)
p1365
I00
sVcontains(Speed)
p1366
I00
sVcontains(data)
p1367
I00
sVcontains(attention)
p1368
I00
sVcontains(beneficial)
p1369
I00
sVcontains(context-aware)
p1370
I00
sVcontains(contacts)
p1371
I00
sVcontains(switch)
p1372
I00
sVcontains(screen)
p1373
I00
sVcontains(Lotus)
p1374
I00
sVcontains(via)
p1375
I00
sVcontains(movement)
p1376
I00
sVcontains(Fit)
p1377
I00
sVcontains(Configure)
p1378
I00
sVcontains(therapy)
p1379
I00
sVcontains(reply)
p1380
I00
sVcontains(otherdepartments)
p1381
I00
sVcontains(issuance.Tagged)
p1382
I00
sVcontains(Gear/Gear)
p1383
I00
sVcontains(memory)
p1384
I00
sVcontains(charge)
p1385
I00
sVcontains(visitors)
p1386
I00
sVcontains(installation)
p1387
I00
sVcontains(Recordrproduces)
p1388
I00
sVcontains(Coordinated)
p1389
I00
sVcontains(special)
p1390
I00
sVcontains(Dell)
p1391
I00
sVcontains(Maintain)
p1392
I00
sVcontains(Evaluated)
p1393
I00
sVcontains(cabling)
p1394
I00
sVcontains(neural)
p1395
I00
sVcontains(solutions)
p1396
I00
sVcontains(andspace)
p1397
I00
sVcontains(Provided)
p1398
I00
sVcontains(API)
p1399
I00
sVcontains(Otherfeatures)
p1400
I00
sVcontains(Team)
p1401
I00
sVcontains(2013)
p1402
I00
sVcontains(requirements)
p1403
I00
sVcontains(Active)
p1404
I00
sVcontains(control)
p1405
I00
sVcontains(account)
p1406
I00
sVcontains(setup)
p1407
I00
sVcontains(capture)
p1408
I00
sVcontains(Support)
p1409
I00
sVcontains(flow)
p1410
I00
sVcontains(space)
p1411
I00
sVcontains(voluntaryelectroencephalogram)
p1412
I00
sVcontains(cost.Worked)
p1413
I00
sVcontains(workstation)
p1414
I00
sVcontains(diseases)
p1415
I00
sVcontains(designed)
p1416
I00
sVcontains(friends)
p1417
I00
sVcontains(Dial)
p1418
I00
sVcontains(ZeroIN)
p1419
I00
sVcontains(Recordr)
p1420
I00
sVcontains(office)
p1421
I00
sVcontains(blue)
p1422
I00
sVcontains(Renovation)
p1423
I00
sVcontains(Rails)
p1424
I00
sVcontains(filesto)
p1425
I00
sVcontains(iPad)
p1426
I00
sVcontains(Key)
p1427
I00
sVcontains(Desk)
p1428
I00
sVcontains(shows)
p1429
I00
sVcontains(maze)
p1430
I00
sVcontains(respond)
p1431
I00
sVcontains(Server)
p1432
I00
sVcontains(projects)
p1433
I00
sVcontains(undergone)
p1434
I00
sVcontains(connectivity)
p1435
I00
sVcontains(chronic)
p1436
I00
sVcontains(1)
p1437
I00
sVcontains(user)
p1438
I00
sVcontains(Integration)
p1439
I00
sVcontains(media)
p1440
I00
sVcontains(thatrequire)
p1441
I00
sVcontains(Remedy)
p1442
I00
sVcontains(resilience)
p1443
I00
sVcontains(Deployment)
p1444
I00
sVcontains(company)
p1445
I00
sVcontains(markers)
p1446
I00
sVcontains(email)
p1447
I00
sVcontains(My)
p1448
I00
sVcontains(Milling)
p1449
I01
sVcontains(management)
p1450
I00
sVcontains(XP)
p1451
I00
sVcontains(Motion)
p1452
I00
sVcontains(using)
p1453
I00
sVcontains(Git)
p1454
I00
sVcontains(assets)
p1455
I00
sVcontains(Manage)
p1456
I00
sVcontains(Tracking)
p1457
I00
sVcontains(first)
p1458
I00
sVcontains(infrastructure)
p1459
I00
sVcontains(Native)
p1460
I00
sVcontains(how-to\u2019s)
p1461
I00
sVcontains(locally)
p1462
I00
sVcontains(Presenting)
p1463
I00
sVcontains(AV)
p1464
I00
sVcontains(audio)
p1465
I00
sVcontains(Analysis)
p1466
I01
sVcontains(Badminton)
p1467
I01
sVcontains(upper)
p1468
I00
sVcontains(occlusion)
p1469
I00
sVcontains(sides)
p1470
I00
sVcontains(Acquisition)
p1471
I00
sVcontains(Neuroscience)
p1472
I00
sVcontains(circuit)
p1473
I00
sVcontains(laptops)
p1474
I00
sVcontains(minimum)
p1475
I00
sVcontains(market)
p1476
I00
sVcontains(basic)
p1477
I00
sVcontains(asset)
p1478
I00
sVcontains(Holmusk)
p1479
I00
sVcontains(improve)
p1480
I00
sVcontains(messaging)
p1481
I00
sVcontains(Programming)
p1482
I01
sVcontains(met)
p1483
I00
sVcontains(update)
p1484
I00
sVcontains(Global)
p1485
I00
sVcontains(It)
p1486
I00
sVcontains(services)
p1487
I00
sVcontains(spent)
p1488
I00
sVcontains(phone)
p1489
I00
sVcontains(eacharm)
p1490
I00
sVcontains(Supervised)
p1491
I00
sVcontains(voice.RecordrDecember)
p1492
I00
sVcontains(client)
p1493
I00
sVcontains(Medical)
p1494
I00
sVcontains(merit)
p1495
I00
sVcontains(E-Mail)
p1496
I00
sVcontains(5)
p1497
I00
sVcontains(machine)
p1498
I00
sVcontains(2010)
p1499
I00
sVcontains(conservation)
p1500
I00
sVcontains(recovery)
p1501
I00
sVcontains(Laptops)
p1502
I00
sVcontains(time)
p1503
I00
sVcontains(important)
p1504
I00
sVcontains(Microsoft)
p1505
I00
sVcontains(daily)
p1506
I00
sVcontains(requests)
p1507
I00
sVcontains(relativelyshort)
p1508
I00
sVcontains(employees)
p1509
I00
sVcontains(IT)
p1510
I00
sVcontains(andsoftware)
p1511
I00
sVcontains(Share)
p1512
I00
sVcontains(planning)
p1513
I00
sVcontains(Enrichment)
p1514
I00
sVcontains(back-end)
p1515
I00
sVcontains(mySPIN)
p1516
I00
sVcontains(LED)
p1517
I00
sVcontains(maintain)
p1518
I00
sVcontains(addressed)
p1519
I00
sVcontains(room)
p1520
I00
sVcontains(used)
p1521
I00
sVcontains(Full)
p1522
I00
sVcontains(score)
p1523
I00
sVcontains(eyes)
p1524
I00
sVcontains(Titanium)
p1525
I00
sVcontains(connected)
p1526
I00
sVcontains(future)
p1527
I00
sVcontains(drivers)
p1528
I00
sVcontains(Brain)
p1529
I00
sVcontains(ensure)
p1530
I00
sVcontains(ApplicationJanuary)
p1531
I00
sVcontains(printers)
p1532
I00
sVcontains(anti-virus)
p1533
I00
sVcontains(layout)
p1534
I00
sVcontains(REST)
p1535
I00
sVcontains(end)
p1536
I00
sVcontains(server)
p1537
I00
sVcontains(including)
p1538
I00
sVcontains(Educating)
p1539
I00
sVcontains(Mobile)
p1540
I00
sVcontains(Processing)
p1541
I00
sVcontains(related)
p1542
I00
sVcontains(event)
p1543
I00
sVcontains(US.Assisted)
p1544
I00
sVcontains(relevant)
p1545
I00
sVcontains(Notes)
p1546
I00
sVcontains(Qualysis)
p1547
I00
sVcontains(analog)
p1548
I00
sVcontains(satisfaction)
p1549
I00
sVcontains(Received)
p1550
I00
sVcontains(action)
p1551
I00
sVcontains(managing)
p1552
I00
sVcontains(ELVIS)
p1553
I00
sVcontains(Administration)
p1554
I00
sVcontains(BCI)
p1555
I00
sVcontains(technician)
p1556
I00
sVcontains(professional)
p1557
I00
sVcontains(effectiveness)
p1558
I00
sVcontains(CMG.com.ph)
p1559
I00
sVcontains(users)
p1560
I00
sVcontains(background)
p1561
I00
sVcontains(Ion)
p1562
I01
sVcontains(information)
p1563
I00
sVcontains(subjects)
p1564
I00
sVcontains(Office)
p1565
I00
sVcontains(works.Asian)
p1566
I00
sVcontains(Android)
p1567
I00
sVcontains(existing)
p1568
I00
sVcontains(carry)
p1569
I00
sVcontains(router)
p1570
I00
sVcontains(automatically)
p1571
I00
sVcontains(manufacturer)
p1572
I00
sVcontains(slowperformance)
p1573
I00
sVcontains(Dropbox)
p1574
I00
sVcontains(specialized)
p1575
I00
sVcontains(bilingual)
p1576
I00
sVcontains(Husbandry)
p1577
I00
sVcontains(required)
p1578
I00
sVcontains(includes)
p1579
I00
sVcontains(seamlessoperation)
p1580
I00
sVcontains(Statistics)
p1581
I01
sVcontains(even)
p1582
I00
sVcontains(Web/Mobile)
p1583
I00
sVcontains(Experience)
p1584
I00
sVcontains(creating)
p1585
I00
sVcontains(PCB)
p1586
I00
sVcontains(Configuredmodem)
p1587
I00
sVcontains(VPN)
p1588
I00
sVcontains(computer)
p1589
I00
sVcontains(SLA)
p1590
I00
sVcontains(DCSE)
p1591
I00
sVcontains(Matlab)
p1592
I01
sVcontains(Backup)
p1593
I00
sVcontains(Provide)
p1594
I00
sVcontains(animal)
p1595
I00
sVcontains(Asian)
p1596
I00
sVcontains(andimplementation)
p1597
I00
sVcontains(partners)
p1598
I00
sVcontains(tool)
p1599
I00
sVcontains(Python)
p1600
I01
sVcontains(Program)
p1601
I00
sVcontains(Auto)
p1602
I00
sVcontains(ableto)
p1603
I00
sVcontains(Real-time)
p1604
I00
sVcontains(devices)
p1605
I00
sVcontains(Event)
p1606
I00
sVcontains(Design)
p1607
I00
sVcontains(OEM)
p1608
I00
sVcontains(2009)
p1609
I00
sVcontains(SmartWatch)
p1610
I00
sVcontains(uses)
p1611
I00
sVcontains(normal)
p1612
I00
sVcontains(central)
p1613
I00
sVcontains(JSON)
p1614
I00
sVcontains(involved)
p1615
I00
sVcontains(SOAP)
p1616
I00
sVcontains(system)
p1617
I00
sVcontains(resolution)
p1618
I00
sVcontains(technical)
p1619
I00
sVcontains(SoundCloud)
p1620
I00
sVcontains(messages)
p1621
I00
sVcontains(Research)
p1622
I00
sVcontains(Objective-C)
p1623
I00
sVcontains(systemsfor)
p1624
I00
sVcontains(deploy)
p1625
I00
sVcontains(hardware)
p1626
I00
sVcontains(various)
p1627
I00
sVcontains(Troubleshooting)
p1628
I00
sVcontains(potentials)
p1629
I00
sVcontains(Lisp)
p1630
I01
sVcontains(identifying)
p1631
I00
sVcontains(colleagues.Provide)
p1632
I00
sVcontains(circuitry)
p1633
I00
sVcontains(distills)
p1634
I00
sVcontains(team)
p1635
I00
sVcontains(movements)
p1636
I00
sVcontains(Designed)
p1637
I00
sVcontains(operations)
p1638
I00
sVcontains(High)
p1639
I00
sVcontains(actionable)
p1640
I00
sVcontains(Web)
p1641
I00
sVcontains(Blackberry)
p1642
I00
sVcontains(documentation)
p1643
I00
sVcontains(Escalated)
p1644
I00
sVcontains(overseas.Manage)
p1645
I00
sVcontains(vendor)
p1646
I00
sVcontains(on-site)
p1647
I00
sVcontains(test)
p1648
I00
sVcontains(develop)
p1649
I00
sVcontains(studies)
p1650
I00
sVcontains(Expert)
p1651
I00
sVcontains(onsite)
p1652
I00
sVcontains(record)
p1653
I00
sVcontains(rodents)
p1654
I00
sVcontains(printer)
p1655
I00
sVcontains(CMG.com.phDecember)
p1656
I00
sVcontains(\u2013)
p1657
I00
sVcontains(items)
p1658
I00
sVcontains(events)
p1659
I00
sVcontains(telehealth)
p1660
I00
sVcontains(Characterization)
p1661
I01
sVcontains(biomarkers)
p1662
I00
sVcontains(upload)
p1663
I00
sVcontains(Capture)
p1664
I00
sVcontains(conducted)
p1665
I00
sVcontains(LabVIEW)
p1666
I00
sVcontains(laptop)
p1667
I00
sVcontains(\u2014)
p1668
I00
sVcontains(back)
p1669
I00
sVcontains(EEG)
p1670
I00
sVcontains(Take)
p1671
I00
sVcontains(Drive\u2122)
p1672
I00
sVcontains(information.Design)
p1673
I00
sVcontains(Install)
p1674
I00
sVcontains(andoffice)
p1675
I00
sVcontains(The)
p1676
I00
sVcontains(tackle)
p1677
I00
sVcontains(4)
p1678
I00
sVcontains(Toq)
p1679
I00
sVcontains(2011)
p1680
I00
sVcontains(spatial)
p1681
I00
sVcontains(mice)
p1682
I00
sVcontains(incoming)
p1683
I00
sVcontains(living)
p1684
I00
sVcontains(Nanofabrication)
p1685
I01
sVcontains(Startup-related)
p1686
I00
sVcontains(distractions)
p1687
I00
sVcontains(files)
p1688
I00
sVcontains(hands)
p1689
I00
sVcontains(byDell)
p1690
I00
sVcontains(inquiries)
p1691
I00
sVcontains(iTunes)
p1692
I00
sVcontains(mining)
p1693
I00
sVcontains(Biology)
p1694
I00
sVcontains(provisioning)
p1695
I00
sVcontains(content)
p1696
I00
sVcontains(Performed)
p1697
I00
sVcontains(tracking)
p1698
I00
sVcontains(new)
p1699
I00
sVcontains(preventive)
p1700
I00
sVcontains(Qualcomm)
p1701
I00
sVcontains(3)
p1702
I00
sVcontains(Facebook)
p1703
I00
sVcontains(vendors)
p1704
I00
sVcontains(interviews.SoFAB.com.phSeptember)
p1705
I00
sVcontains(regionally)
p1706
I00
sVcontains(chat)
p1707
I00
sVcontains(analytics)
p1708
I00
sVcontains(Leads)
p1709
I00
sVcontains(products)
p1710
I00
sVcontains(Using)
p1711
I00
sVcontains(Conduct)
p1712
I00
sVcontains(Common)
p1713
I01
sVcontains(ITadministration)
p1714
I00
sVcontains(100)
p1715
I00
sVcontains(project)
p1716
I00
sVcontains(Developer)
p1717
I00
sVcontains(optimal)
p1718
I00
sVcontains(resolved)
p1719
I00
sVcontains(easiest)
p1720
I00
sVcontains(standard)
p1721
I00
sVcontains(Monitor)
p1722
I00
sVcontains(e.g)
p1723
I00
sVcontains(restrictsincoming)
p1724
I00
sVcontains('Customer)
p1725
I00
sVcontains(andevents)
p1726
I00
sVcontains(motion)
p1727
I00
sVcontains(car)
p1728
I00
sVcontains(simply)
p1729
I00
sVcontains(Molecular)
p1730
I00
sVcontains('s)
p1731
I00
sVcontains(changes)
p1732
I00
sVcontains(keep)
p1733
I00
sVcontains(trials)
p1734
I00
sVcontains(organising)
p1735
I00
sVcontains(Operations)
p1736
I00
sVcontains(BMC)
p1737
I00
sVcontains(overall)
p1738
I00
sVcontains(Send)
p1739
I00
sVcontains(what)
p1740
I00
sVcontains(animals)
p1741
I00
sVcontains(1st)
p1742
I00
sVcontains(Samsung)
p1743
I00
sVcontains(coordinated)
p1744
I00
sVcontains(expansion)
p1745
I00
sVcontains(personal)
p1746
I00
sVcontains(Help)
p1747
I00
sVcontains(allows)
p1748
I00
sVcontains(detect)
p1749
I00
sVcontains(8)
p1750
I00
sVcontains(involvesconnecting)
p1751
I00
sVcontains(innovative)
p1752
I00
sVcontains(presentation)
p1753
I00
sVcontains(Stay)
p1754
I00
sVcontains(integration)
p1755
I00
sVcontains(tickets)
p1756
I00
sVcontains(awarded)
p1757
I00
sVcontains(iOS)
p1758
I00
sVcontains(level)
p1759
I00
sVcontains(Only)
p1760
I00
sVcontains(patients)
p1761
I00
sVcontains(parts)
p1762
I00
sVcontains(app)
p1763
I00
sVcontains(processes)
p1764
I00
sVcontains(video)
p1765
I00
sVcontains(replacement)
p1766
I00
sVcontains(service)
p1767
I00
sVcontains(Windows)
p1768
I00
sVcontains(December)
p1769
I00
sVcontains(HTML)
p1770
I00
sVcontains(Spider)
p1771
I00
sVcontains(dispatch)
p1772
I00
sVcontains(Labview)
p1773
I00
sVcontains(configure)
p1774
I00
sVcontains(drafting)
p1775
I00
sVcontains(issue)
p1776
I00
sVcontains(positive)
p1777
I00
sVcontains(issues)
p1778
I00
sVcontains(LABVIEW)
p1779
I00
sVcontains(Development)
p1780
I00
sVcontains(procurement)
p1781
I00
sVcontains(ITIL)
p1782
I00
sVcontains(Data)
p1783
I01
sVcontains(Enterprise)
p1784
I00
sVcontains(Club)
p1785
I00
sVcontains(contain)
p1786
I00
sVcontains(targeted)
p1787
I00
sVcontains(7)
p1788
I00
sVcontains(software)
p1789
I00
sVcontains(Wear)
p1790
I00
sVcontains(Services)
p1791
I00
sVcontains(Interface)
p1792
I00
sVcontains(updates)
p1793
I00
sVcontains(electrodes)
p1794
I00
sVcontains(radial)
p1795
I00
sVcontains(virus)
p1796
I00
sVcontains(arm)
p1797
I00
sVcontains('re)
p1798
I00
sVcontains(end-user)
p1799
I00
sVcontains(2nd)
p1800
I00
sVcontains(role)
p1801
I00
sVcontains(Infrastructure)
p1802
I00
sVcontains(storeroom)
p1803
I00
sVcontains(jQuery)
p1804
I00
sVcontains(sensors)
p1805
I00
sVcontains(subscribers)
p1806
I00
sVcontains(Sputtering)
p1807
I01
sVcontains(I)
p1808
I00
sVcontains(October)
p1809
I00
sVcontains(brain)
p1810
I00
sVcontains(modulation)
p1811
I00
sVcontains(resilientmodels)
p1812
I00
sVcontains(you)
p1813
I00
sVcontains(requires)
p1814
I00
sVcontains(presentations)
p1815
I00
sVcontains(visuallyevoked)
p1816
I00
sVcontains(JavaScript)
p1817
I00
sVcontains(signalingetc)
p1818
I00
sVcontains(AT)
p1819
I00
sVcontains(iWatch)
p1820
I00
sVcontains(Citrix)
p1821
I00
sVcontains(equipment)
p1822
I00
sVcontains(Pebble)
p1823
I00
sVcontains(learningand)
p1824
I00
sVcontains(renovation)
p1825
I00
sVcontains(Computer)
p1826
I00
sVcontains(greatly)
p1827
I00
sVcontains(perform)
p1828
I00
sVcontains(Present)
p1829
I00
sVcontains(Photoshop)
p1830
I00
sVcontains(teams)
p1831
I00
sVcontains(smartphoneto)
p1832
I00
sVcontains(two)
p1833
I00
sVcontains(analysis)
p1834
I00
sVcontains(performing)
p1835
I00
sVcontains(Architect)
p1836
I00
sVcontains(glowing)
p1837
I00
sVcontains(automaticallysync)
p1838
I00
sVcontains(Assist)
p1839
I00
sVcontains(conferencing)
p1840
I00
sVcontains(toidentify)
p1841
I00
sVcontains(LAN/WAN)
p1842
I00
sVcontains(Managed)
p1843
I00
sVcontains(safely)
p1844
I00
sVcontains(Ruby)
p1845
I00
sVcontains(stable)
p1846
I00
sVcontains(organisation)
p1847
I00
sVcontains(Excel)
p1848
I00
sVcontains(3rd)
p1849
I00
sVcontains(desktop)
p1850
I00
sVcontains(May)
p1851
I00
sVcontains(SoFAB)
p1852
I00
sVcontains(researchand)
p1853
I00
sVcontains(Technical)
p1854
I00
sVcontains(Training)
p1855
I00
sVcontains(tasks)
p1856
I00
sVcontains(IR)
p1857
I00
sVcontains(entry)
p1858
I00
sVcontains(platform)
p1859
I00
sVcontains(2012)
p1860
I00
sVcontains(tokeep)
p1861
I00
sVcontains(Hardware)
p1862
I00
sVcontains(interfacing)
p1863
I00
sVcontains(within)
p1864
I00
sVcontains(logistics)
p1865
I00
sVcontains(activities)
p1866
I00
sVcontains(native)
p1867
I00
sVcontains(maze.We)
p1868
I00
sVcontains(likeupgrades)
p1869
I00
sVcontains(systemTear)
p1870
I00
sVcontains(Coach)
p1871
I00
sVcontains(Functional)
p1872
I00
sVcontains(Photolithography)
p1873
I01
sVcontains(read)
p1874
I00
sVcontains(screens)
p1875
I00
sVcontains(Engineering)
p1876
I00
sVcontains(limb)
p1877
I00
sVcontains(researchers)
p1878
I00
sVcontains(Operating)
p1879
I00
sVcontains(analysisMarch)
p1880
I00
sVcontains(mouse)
p1881
I00
sVcontains(in)
p1882
I00
sVcontains(Handled)
p1883
I00
sVcontains(Service)
p1884
I00
sVcontains(train)
p1885
I00
sVcontains(Collaborate)
p1886
I00
sVcontains(network)
p1887
I00
sVcontains(Biomaterials)
p1888
I00
sVcontains(recordings)
p1889
I00
sVcontains(2)
p1890
I00
sVcontains(System)
p1891
I00
sVcontains(ITteams)
p1892
I00
sVcontains(Ops)
p1893
I00
sVcontains(high)
p1894
I00
sVcontains(Installation)
p1895
I00
sVcontains(SoFAB.com.ph)
p1896
I00
sVcontains(Exchange)
p1897
I00
sVcontains(processed)
p1898
I00
sVcontains(Sony)
p1899
I00
sVcontains(design)
p1900
I00
sVcontains(resulting)
p1901
I00
sVcontains(provide)
p1902
I00
sVcontains(Google)
p1903
I00
sVcontains(deployment.Imaged)
p1904
I00
sVcontains(voice)
p1905
I00
sVcontains(Mobile/Web)
p1906
I00
sVcontains(maintenance)
p1907
I00
sVcontains(find)
p1908
I00
sVcontains(audio/sound/voice)
p1909
I00
sVcontains(Vista)
p1910
I00
sVcontains(Software)
p1911
I00
sVcontains(EventOctober)
p1912
I00
sVcontains(backend)
p1913
I00
sVcontains(visualization)
p1914
I00
sVcontains(intelligent)
p1915
I00
sVcontains(relationship)
p1916
I00
sVcontains(constructed)
p1917
I00
sVcontains(track)
p1918
I00
sVcontains(toapproprieate)
p1919
I00
sVcontains(influence)
p1920
I00
sVcontains(customer)
p1921
I00
sS'4'
p1922
tp1923
a((dp1924
Vcontains(corporate)
p1925
I00
sVcontains(gathering)
p1926
I00
sVcontains(Network)
p1927
I00
sVcontains(Responsibilities)
p1928
I00
sVcontains(cancer)
p1929
I00
sVcontains(Application)
p1930
I01
sVcontains(covers)
p1931
I00
sVcontains(Systems)
p1932
I01
sVcontains(prediction)
p1933
I00
sVcontains(PostgreSQL)
p1934
I01
sVcontains(Management)
p1935
I01
sVcontains(collaborators)
p1936
I00
sVcontains(Helped)
p1937
I00
sVcontains(Java)
p1938
I00
sVcontains(play)
p1939
I01
sVcontains(drug)
p1940
I00
sVcontains(Directory)
p1941
I00
sVcontains(Image)
p1942
I00
sVcontains(Upload)
p1943
I01
sVcontains(workflow)
p1944
I00
sVcontains(patients.Auto)
p1945
I00
sVcontains(Worked)
p1946
I00
sVcontains(timely)
p1947
I00
sVcontains(ofdaily)
p1948
I00
sVcontains(wasconnected)
p1949
I00
sVcontains(iCloud)
p1950
I01
sVcontains(Biomedical)
p1951
I00
sVcontains(stroke)
p1952
I00
sVcontains(CRM)
p1953
I00
sVcontains(well)
p1954
I00
sVcontains(development)
p1955
I01
sVcontains(malfunctions)
p1956
I00
sVcontains(recorder)
p1957
I01
sVcontains(Domino)
p1958
I00
sVcontains(smartwatchSDKs)
p1959
I01
sVcontains(across)
p1960
I01
sVcontains(proficiency)
p1961
I00
sVcontains(Account)
p1962
I01
sVcontains(AJAX)
p1963
I01
sVcontains(existence)
p1964
I00
sVcontains(Devices)
p1965
I00
sVcontains(problem)
p1966
I00
sVcontains(quality)
p1967
I01
sVcontains(constraints)
p1968
I00
sVcontains(home)
p1969
I00
sVcontains(outcomes)
p1970
I00
sVcontains(applications)
p1971
I00
sVcontains(Mining)
p1972
I00
sVcontains(party)
p1973
I00
sVcontains(You)
p1974
I01
sVcontains(Administer)
p1975
I00
sVcontains(stress)
p1976
I00
sVcontains(responses)
p1977
I00
sVcontains(infection)
p1978
I00
sVcontains(necessary)
p1979
I00
sVcontains(fitted)
p1980
I00
sVcontains(health)
p1981
I00
sVcontains(Logistics)
p1982
I00
sVcontains(SDKs)
p1983
I01
sVcontains(support)
p1984
I00
sVcontains(Various)
p1985
I01
sVcontains(pending)
p1986
I01
sVcontains(This)
p1987
I00
sVcontains(Certified)
p1988
I00
sVcontains(matter)
p1989
I01
sVcontains(paralytic)
p1990
I00
sVcontains(Manager)
p1991
I00
sVcontains(training)
p1992
I00
sVcontains(out)
p1993
I01
sVcontains(T)
p1994
I00
sVcontains(reliable)
p1995
I00
sVcontains(Sync)
p1996
I01
sVcontains(wheel)
p1997
I01
sVcontains(In)
p1998
I00
sVcontains(road)
p1999
I01
sVcontains(Applications)
p2000
I01
sVcontains(models)
p2001
I00
sVcontains(research)
p2002
I00
sVcontains(prior)
p2003
I00
sVcontains(Speed)
p2004
I00
sVcontains(data)
p2005
I00
sVcontains(attention)
p2006
I01
sVcontains(beneficial)
p2007
I00
sVcontains(context-aware)
p2008
I01
sVcontains(contacts)
p2009
I01
sVcontains(switch)
p2010
I00
sVcontains(screen)
p2011
I00
sVcontains(Lotus)
p2012
I00
sVcontains(via)
p2013
I01
sVcontains(movement)
p2014
I00
sVcontains(Fit)
p2015
I01
sVcontains(Configure)
p2016
I00
sVcontains(therapy)
p2017
I00
sVcontains(reply)
p2018
I01
sVcontains(otherdepartments)
p2019
I00
sVcontains(issuance.Tagged)
p2020
I00
sVcontains(Gear/Gear)
p2021
I01
sVcontains(memory)
p2022
I00
sVcontains(charge)
p2023
I00
sVcontains(visitors)
p2024
I00
sVcontains(installation)
p2025
I00
sVcontains(Recordrproduces)
p2026
I01
sVcontains(Coordinated)
p2027
I00
sVcontains(special)
p2028
I00
sVcontains(Dell)
p2029
I00
sVcontains(Maintain)
p2030
I00
sVcontains(Evaluated)
p2031
I00
sVcontains(cabling)
p2032
I00
sVcontains(neural)
p2033
I00
sVcontains(solutions)
p2034
I00
sVcontains(andspace)
p2035
I00
sVcontains(Provided)
p2036
I00
sVcontains(API)
p2037
I01
sVcontains(Otherfeatures)
p2038
I01
sVcontains(Team)
p2039
I01
sVcontains(2013)
p2040
I00
sVcontains(requirements)
p2041
I00
sVcontains(Active)
p2042
I00
sVcontains(control)
p2043
I00
sVcontains(account)
p2044
I01
sVcontains(setup)
p2045
I00
sVcontains(capture)
p2046
I00
sVcontains(Support)
p2047
I00
sVcontains(flow)
p2048
I00
sVcontains(space)
p2049
I00
sVcontains(voluntaryelectroencephalogram)
p2050
I00
sVcontains(cost.Worked)
p2051
I00
sVcontains(workstation)
p2052
I00
sVcontains(diseases)
p2053
I00
sVcontains(designed)
p2054
I00
sVcontains(friends)
p2055
I01
sVcontains(Dial)
p2056
I00
sVcontains(ZeroIN)
p2057
I01
sVcontains(Recordr)
p2058
I01
sVcontains(office)
p2059
I00
sVcontains(blue)
p2060
I00
sVcontains(Renovation)
p2061
I00
sVcontains(Rails)
p2062
I01
sVcontains(filesto)
p2063
I01
sVcontains(iPad)
p2064
I01
sVcontains(Key)
p2065
I00
sVcontains(Desk)
p2066
I00
sVcontains(shows)
p2067
I00
sVcontains(maze)
p2068
I00
sVcontains(respond)
p2069
I01
sVcontains(Server)
p2070
I00
sVcontains(projects)
p2071
I00
sVcontains(undergone)
p2072
I00
sVcontains(connectivity)
p2073
I00
sVcontains(chronic)
p2074
I00
sVcontains(1)
p2075
I01
sVcontains(user)
p2076
I00
sVcontains(Integration)
p2077
I01
sVcontains(media)
p2078
I01
sVcontains(thatrequire)
p2079
I01
sVcontains(Remedy)
p2080
I00
sVcontains(resilience)
p2081
I00
sVcontains(Deployment)
p2082
I00
sVcontains(company)
p2083
I00
sVcontains(markers)
p2084
I00
sVcontains(email)
p2085
I01
sVcontains(My)
p2086
I00
sVcontains(Milling)
p2087
I00
sVcontains(management)
p2088
I00
sVcontains(XP)
p2089
I00
sVcontains(Motion)
p2090
I00
sVcontains(using)
p2091
I01
sVcontains(Git)
p2092
I01
sVcontains(assets)
p2093
I00
sVcontains(Manage)
p2094
I00
sVcontains(Tracking)
p2095
I00
sVcontains(first)
p2096
I01
sVcontains(infrastructure)
p2097
I00
sVcontains(Native)
p2098
I00
sVcontains(how-to\u2019s)
p2099
I00
sVcontains(locally)
p2100
I00
sVcontains(Presenting)
p2101
I00
sVcontains(AV)
p2102
I00
sVcontains(audio)
p2103
I00
sVcontains(Analysis)
p2104
I00
sVcontains(Badminton)
p2105
I00
sVcontains(upper)
p2106
I00
sVcontains(occlusion)
p2107
I00
sVcontains(sides)
p2108
I00
sVcontains(Acquisition)
p2109
I00
sVcontains(Neuroscience)
p2110
I00
sVcontains(circuit)
p2111
I00
sVcontains(laptops)
p2112
I00
sVcontains(minimum)
p2113
I01
sVcontains(market)
p2114
I00
sVcontains(basic)
p2115
I00
sVcontains(asset)
p2116
I00
sVcontains(Holmusk)
p2117
I00
sVcontains(improve)
p2118
I00
sVcontains(messaging)
p2119
I01
sVcontains(Programming)
p2120
I00
sVcontains(met)
p2121
I00
sVcontains(update)
p2122
I00
sVcontains(Global)
p2123
I00
sVcontains(It)
p2124
I01
sVcontains(services)
p2125
I00
sVcontains(spent)
p2126
I00
sVcontains(phone)
p2127
I00
sVcontains(eacharm)
p2128
I00
sVcontains(Supervised)
p2129
I00
sVcontains(voice.RecordrDecember)
p2130
I01
sVcontains(client)
p2131
I00
sVcontains(Medical)
p2132
I00
sVcontains(merit)
p2133
I01
sVcontains(E-Mail)
p2134
I01
sVcontains(5)
p2135
I01
sVcontains(machine)
p2136
I00
sVcontains(2010)
p2137
I01
sVcontains(conservation)
p2138
I00
sVcontains(recovery)
p2139
I00
sVcontains(Laptops)
p2140
I00
sVcontains(time)
p2141
I00
sVcontains(important)
p2142
I01
sVcontains(Microsoft)
p2143
I00
sVcontains(daily)
p2144
I00
sVcontains(requests)
p2145
I00
sVcontains(relativelyshort)
p2146
I00
sVcontains(employees)
p2147
I00
sVcontains(IT)
p2148
I00
sVcontains(andsoftware)
p2149
I00
sVcontains(Share)
p2150
I01
sVcontains(planning)
p2151
I00
sVcontains(Enrichment)
p2152
I00
sVcontains(back-end)
p2153
I00
sVcontains(mySPIN)
p2154
I01
sVcontains(LED)
p2155
I00
sVcontains(maintain)
p2156
I00
sVcontains(addressed)
p2157
I00
sVcontains(room)
p2158
I00
sVcontains(used)
p2159
I01
sVcontains(Full)
p2160
I00
sVcontains(score)
p2161
I00
sVcontains(eyes)
p2162
I01
sVcontains(Titanium)
p2163
I01
sVcontains(connected)
p2164
I01
sVcontains(future)
p2165
I00
sVcontains(drivers)
p2166
I01
sVcontains(Brain)
p2167
I00
sVcontains(ensure)
p2168
I00
sVcontains(ApplicationJanuary)
p2169
I01
sVcontains(printers)
p2170
I00
sVcontains(anti-virus)
p2171
I00
sVcontains(layout)
p2172
I00
sVcontains(REST)
p2173
I01
sVcontains(end)
p2174
I00
sVcontains(server)
p2175
I00
sVcontains(including)
p2176
I00
sVcontains(Educating)
p2177
I00
sVcontains(Mobile)
p2178
I01
sVcontains(Processing)
p2179
I00
sVcontains(related)
p2180
I00
sVcontains(event)
p2181
I00
sVcontains(US.Assisted)
p2182
I00
sVcontains(relevant)
p2183
I00
sVcontains(Notes)
p2184
I00
sVcontains(Qualysis)
p2185
I00
sVcontains(analog)
p2186
I00
sVcontains(satisfaction)
p2187
I00
sVcontains(Received)
p2188
I00
sVcontains(action)
p2189
I01
sVcontains(managing)
p2190
I00
sVcontains(ELVIS)
p2191
I00
sVcontains(Administration)
p2192
I00
sVcontains(BCI)
p2193
I00
sVcontains(technician)
p2194
I00
sVcontains(professional)
p2195
I00
sVcontains(effectiveness)
p2196
I00
sVcontains(CMG.com.ph)
p2197
I01
sVcontains(users)
p2198
I00
sVcontains(background)
p2199
I01
sVcontains(Ion)
p2200
I00
sVcontains(information)
p2201
I00
sVcontains(subjects)
p2202
I00
sVcontains(Office)
p2203
I00
sVcontains(works.Asian)
p2204
I00
sVcontains(Android)
p2205
I01
sVcontains(existing)
p2206
I00
sVcontains(carry)
p2207
I00
sVcontains(router)
p2208
I00
sVcontains(automatically)
p2209
I00
sVcontains(manufacturer)
p2210
I01
sVcontains(slowperformance)
p2211
I00
sVcontains(Dropbox)
p2212
I01
sVcontains(specialized)
p2213
I00
sVcontains(bilingual)
p2214
I00
sVcontains(Husbandry)
p2215
I00
sVcontains(required)
p2216
I00
sVcontains(includes)
p2217
I01
sVcontains(seamlessoperation)
p2218
I00
sVcontains(Statistics)
p2219
I00
sVcontains(even)
p2220
I01
sVcontains(Web/Mobile)
p2221
I01
sVcontains(Experience)
p2222
I00
sVcontains(creating)
p2223
I00
sVcontains(PCB)
p2224
I00
sVcontains(Configuredmodem)
p2225
I00
sVcontains(VPN)
p2226
I00
sVcontains(computer)
p2227
I00
sVcontains(SLA)
p2228
I00
sVcontains(DCSE)
p2229
I00
sVcontains(Matlab)
p2230
I00
sVcontains(Backup)
p2231
I01
sVcontains(Provide)
p2232
I00
sVcontains(animal)
p2233
I00
sVcontains(Asian)
p2234
I00
sVcontains(andimplementation)
p2235
I00
sVcontains(partners)
p2236
I00
sVcontains(tool)
p2237
I00
sVcontains(Python)
p2238
I00
sVcontains(Program)
p2239
I00
sVcontains(Auto)
p2240
I01
sVcontains(ableto)
p2241
I00
sVcontains(Real-time)
p2242
I00
sVcontains(devices)
p2243
I01
sVcontains(Event)
p2244
I00
sVcontains(Design)
p2245
I00
sVcontains(OEM)
p2246
I00
sVcontains(2009)
p2247
I00
sVcontains(SmartWatch)
p2248
I01
sVcontains(uses)
p2249
I01
sVcontains(normal)
p2250
I00
sVcontains(central)
p2251
I00
sVcontains(JSON)
p2252
I01
sVcontains(involved)
p2253
I00
sVcontains(SOAP)
p2254
I01
sVcontains(system)
p2255
I00
sVcontains(resolution)
p2256
I00
sVcontains(technical)
p2257
I00
sVcontains(SoundCloud)
p2258
I01
sVcontains(messages)
p2259
I01
sVcontains(Research)
p2260
I00
sVcontains(Objective-C)
p2261
I01
sVcontains(systemsfor)
p2262
I00
sVcontains(deploy)
p2263
I00
sVcontains(hardware)
p2264
I00
sVcontains(various)
p2265
I01
sVcontains(Troubleshooting)
p2266
I00
sVcontains(potentials)
p2267
I00
sVcontains(Lisp)
p2268
I00
sVcontains(identifying)
p2269
I00
sVcontains(colleagues.Provide)
p2270
I00
sVcontains(circuitry)
p2271
I00
sVcontains(distills)
p2272
I01
sVcontains(team)
p2273
I00
sVcontains(movements)
p2274
I00
sVcontains(Designed)
p2275
I00
sVcontains(operations)
p2276
I00
sVcontains(High)
p2277
I00
sVcontains(actionable)
p2278
I01
sVcontains(Web)
p2279
I01
sVcontains(Blackberry)
p2280
I00
sVcontains(documentation)
p2281
I00
sVcontains(Escalated)
p2282
I00
sVcontains(overseas.Manage)
p2283
I00
sVcontains(vendor)
p2284
I00
sVcontains(on-site)
p2285
I00
sVcontains(test)
p2286
I00
sVcontains(develop)
p2287
I00
sVcontains(studies)
p2288
I00
sVcontains(Expert)
p2289
I00
sVcontains(onsite)
p2290
I00
sVcontains(record)
p2291
I01
sVcontains(rodents)
p2292
I00
sVcontains(printer)
p2293
I00
sVcontains(CMG.com.phDecember)
p2294
I01
sVcontains(\u2013)
p2295
I01
sVcontains(items)
p2296
I01
sVcontains(events)
p2297
I00
sVcontains(telehealth)
p2298
I00
sVcontains(Characterization)
p2299
I00
sVcontains(biomarkers)
p2300
I00
sVcontains(upload)
p2301
I00
sVcontains(Capture)
p2302
I00
sVcontains(conducted)
p2303
I00
sVcontains(LabVIEW)
p2304
I00
sVcontains(laptop)
p2305
I00
sVcontains(\u2014)
p2306
I01
sVcontains(back)
p2307
I00
sVcontains(EEG)
p2308
I00
sVcontains(Take)
p2309
I01
sVcontains(Drive\u2122)
p2310
I01
sVcontains(information.Design)
p2311
I00
sVcontains(Install)
p2312
I00
sVcontains(andoffice)
p2313
I00
sVcontains(The)
p2314
I00
sVcontains(tackle)
p2315
I00
sVcontains(4)
p2316
I01
sVcontains(Toq)
p2317
I01
sVcontains(2011)
p2318
I01
sVcontains(spatial)
p2319
I00
sVcontains(mice)
p2320
I00
sVcontains(incoming)
p2321
I01
sVcontains(living)
p2322
I00
sVcontains(Nanofabrication)
p2323
I00
sVcontains(Startup-related)
p2324
I00
sVcontains(distractions)
p2325
I01
sVcontains(files)
p2326
I01
sVcontains(hands)
p2327
I01
sVcontains(byDell)
p2328
I00
sVcontains(inquiries)
p2329
I00
sVcontains(iTunes)
p2330
I01
sVcontains(mining)
p2331
I00
sVcontains(Biology)
p2332
I00
sVcontains(provisioning)
p2333
I00
sVcontains(content)
p2334
I01
sVcontains(Performed)
p2335
I00
sVcontains(tracking)
p2336
I00
sVcontains(new)
p2337
I00
sVcontains(preventive)
p2338
I00
sVcontains(Qualcomm)
p2339
I01
sVcontains(3)
p2340
I01
sVcontains(Facebook)
p2341
I01
sVcontains(vendors)
p2342
I00
sVcontains(interviews.SoFAB.com.phSeptember)
p2343
I01
sVcontains(regionally)
p2344
I00
sVcontains(chat)
p2345
I00
sVcontains(analytics)
p2346
I00
sVcontains(Leads)
p2347
I00
sVcontains(products)
p2348
I00
sVcontains(Using)
p2349
I00
sVcontains(Conduct)
p2350
I00
sVcontains(Common)
p2351
I00
sVcontains(ITadministration)
p2352
I00
sVcontains(100)
p2353
I00
sVcontains(project)
p2354
I00
sVcontains(Developer)
p2355
I01
sVcontains(optimal)
p2356
I00
sVcontains(resolved)
p2357
I00
sVcontains(easiest)
p2358
I01
sVcontains(standard)
p2359
I00
sVcontains(Monitor)
p2360
I00
sVcontains(e.g)
p2361
I00
sVcontains(restrictsincoming)
p2362
I01
sVcontains('Customer)
p2363
I00
sVcontains(andevents)
p2364
I00
sVcontains(motion)
p2365
I00
sVcontains(car)
p2366
I01
sVcontains(simply)
p2367
I01
sVcontains(Molecular)
p2368
I00
sVcontains('s)
p2369
I00
sVcontains(changes)
p2370
I00
sVcontains(keep)
p2371
I01
sVcontains(trials)
p2372
I00
sVcontains(organising)
p2373
I00
sVcontains(Operations)
p2374
I00
sVcontains(BMC)
p2375
I00
sVcontains(overall)
p2376
I00
sVcontains(Send)
p2377
I01
sVcontains(what)
p2378
I01
sVcontains(animals)
p2379
I00
sVcontains(1st)
p2380
I00
sVcontains(Samsung)
p2381
I01
sVcontains(coordinated)
p2382
I00
sVcontains(expansion)
p2383
I00
sVcontains(personal)
p2384
I01
sVcontains(Help)
p2385
I00
sVcontains(allows)
p2386
I01
sVcontains(detect)
p2387
I00
sVcontains(8)
p2388
I00
sVcontains(involvesconnecting)
p2389
I00
sVcontains(innovative)
p2390
I00
sVcontains(presentation)
p2391
I00
sVcontains(Stay)
p2392
I01
sVcontains(integration)
p2393
I01
sVcontains(tickets)
p2394
I00
sVcontains(awarded)
p2395
I00
sVcontains(iOS)
p2396
I01
sVcontains(level)
p2397
I00
sVcontains(Only)
p2398
I01
sVcontains(patients)
p2399
I00
sVcontains(parts)
p2400
I01
sVcontains(app)
p2401
I01
sVcontains(processes)
p2402
I00
sVcontains(video)
p2403
I00
sVcontains(replacement)
p2404
I00
sVcontains(service)
p2405
I00
sVcontains(Windows)
p2406
I00
sVcontains(December)
p2407
I00
sVcontains(HTML)
p2408
I01
sVcontains(Spider)
p2409
I00
sVcontains(dispatch)
p2410
I00
sVcontains(Labview)
p2411
I00
sVcontains(configure)
p2412
I00
sVcontains(drafting)
p2413
I00
sVcontains(issue)
p2414
I00
sVcontains(positive)
p2415
I00
sVcontains(issues)
p2416
I00
sVcontains(LABVIEW)
p2417
I00
sVcontains(Development)
p2418
I01
sVcontains(procurement)
p2419
I00
sVcontains(ITIL)
p2420
I00
sVcontains(Data)
p2421
I00
sVcontains(Enterprise)
p2422
I00
sVcontains(Club)
p2423
I00
sVcontains(contain)
p2424
I01
sVcontains(targeted)
p2425
I00
sVcontains(7)
p2426
I00
sVcontains(software)
p2427
I00
sVcontains(Wear)
p2428
I01
sVcontains(Services)
p2429
I01
sVcontains(Interface)
p2430
I00
sVcontains(updates)
p2431
I00
sVcontains(electrodes)
p2432
I00
sVcontains(radial)
p2433
I00
sVcontains(virus)
p2434
I00
sVcontains(arm)
p2435
I00
sVcontains('re)
p2436
I00
sVcontains(end-user)
p2437
I00
sVcontains(2nd)
p2438
I00
sVcontains(role)
p2439
I00
sVcontains(Infrastructure)
p2440
I00
sVcontains(storeroom)
p2441
I00
sVcontains(jQuery)
p2442
I01
sVcontains(sensors)
p2443
I00
sVcontains(subscribers)
p2444
I00
sVcontains(Sputtering)
p2445
I00
sVcontains(I)
p2446
I00
sVcontains(October)
p2447
I00
sVcontains(brain)
p2448
I00
sVcontains(modulation)
p2449
I00
sVcontains(resilientmodels)
p2450
I00
sVcontains(you)
p2451
I01
sVcontains(requires)
p2452
I00
sVcontains(presentations)
p2453
I00
sVcontains(visuallyevoked)
p2454
I00
sVcontains(JavaScript)
p2455
I01
sVcontains(signalingetc)
p2456
I00
sVcontains(AT)
p2457
I00
sVcontains(iWatch)
p2458
I01
sVcontains(Citrix)
p2459
I00
sVcontains(equipment)
p2460
I00
sVcontains(Pebble)
p2461
I01
sVcontains(learningand)
p2462
I00
sVcontains(renovation)
p2463
I00
sVcontains(Computer)
p2464
I00
sVcontains(greatly)
p2465
I00
sVcontains(perform)
p2466
I00
sVcontains(Present)
p2467
I01
sVcontains(Photoshop)
p2468
I00
sVcontains(teams)
p2469
I00
sVcontains(smartphoneto)
p2470
I01
sVcontains(two)
p2471
I00
sVcontains(analysis)
p2472
I00
sVcontains(performing)
p2473
I00
sVcontains(Architect)
p2474
I01
sVcontains(glowing)
p2475
I00
sVcontains(automaticallysync)
p2476
I01
sVcontains(Assist)
p2477
I00
sVcontains(conferencing)
p2478
I00
sVcontains(toidentify)
p2479
I00
sVcontains(LAN/WAN)
p2480
I00
sVcontains(Managed)
p2481
I00
sVcontains(safely)
p2482
I01
sVcontains(Ruby)
p2483
I01
sVcontains(stable)
p2484
I00
sVcontains(organisation)
p2485
I00
sVcontains(Excel)
p2486
I00
sVcontains(3rd)
p2487
I00
sVcontains(desktop)
p2488
I00
sVcontains(May)
p2489
I00
sVcontains(SoFAB)
p2490
I01
sVcontains(researchand)
p2491
I00
sVcontains(Technical)
p2492
I00
sVcontains(Training)
p2493
I00
sVcontains(tasks)
p2494
I00
sVcontains(IR)
p2495
I00
sVcontains(entry)
p2496
I00
sVcontains(platform)
p2497
I00
sVcontains(2012)
p2498
I01
sVcontains(tokeep)
p2499
I01
sVcontains(Hardware)
p2500
I00
sVcontains(interfacing)
p2501
I00
sVcontains(within)
p2502
I00
sVcontains(logistics)
p2503
I00
sVcontains(activities)
p2504
I00
sVcontains(native)
p2505
I01
sVcontains(maze.We)
p2506
I00
sVcontains(likeupgrades)
p2507
I00
sVcontains(systemTear)
p2508
I00
sVcontains(Coach)
p2509
I00
sVcontains(Functional)
p2510
I00
sVcontains(Photolithography)
p2511
I00
sVcontains(read)
p2512
I01
sVcontains(screens)
p2513
I00
sVcontains(Engineering)
p2514
I00
sVcontains(limb)
p2515
I00
sVcontains(researchers)
p2516
I00
sVcontains(Operating)
p2517
I00
sVcontains(analysisMarch)
p2518
I00
sVcontains(mouse)
p2519
I00
sVcontains(in)
p2520
I01
sVcontains(Handled)
p2521
I00
sVcontains(Service)
p2522
I00
sVcontains(train)
p2523
I00
sVcontains(Collaborate)
p2524
I00
sVcontains(network)
p2525
I00
sVcontains(Biomaterials)
p2526
I00
sVcontains(recordings)
p2527
I01
sVcontains(2)
p2528
I01
sVcontains(System)
p2529
I00
sVcontains(ITteams)
p2530
I00
sVcontains(Ops)
p2531
I00
sVcontains(high)
p2532
I01
sVcontains(Installation)
p2533
I00
sVcontains(SoFAB.com.ph)
p2534
I01
sVcontains(Exchange)
p2535
I00
sVcontains(processed)
p2536
I00
sVcontains(Sony)
p2537
I01
sVcontains(design)
p2538
I00
sVcontains(resulting)
p2539
I00
sVcontains(provide)
p2540
I00
sVcontains(Google)
p2541
I01
sVcontains(deployment.Imaged)
p2542
I00
sVcontains(voice)
p2543
I01
sVcontains(Mobile/Web)
p2544
I01
sVcontains(maintenance)
p2545
I00
sVcontains(find)
p2546
I01
sVcontains(audio/sound/voice)
p2547
I01
sVcontains(Vista)
p2548
I00
sVcontains(Software)
p2549
I00
sVcontains(EventOctober)
p2550
I00
sVcontains(backend)
p2551
I00
sVcontains(visualization)
p2552
I00
sVcontains(intelligent)
p2553
I01
sVcontains(relationship)
p2554
I00
sVcontains(constructed)
p2555
I00
sVcontains(track)
p2556
I00
sVcontains(toapproprieate)
p2557
I00
sVcontains(influence)
p2558
I00
sVcontains(customer)
p2559
I00
sS'5'
p2560
tp2561
a((dp2562
Vcontains(corporate)
p2563
I00
sVcontains(gathering)
p2564
I00
sVcontains(Network)
p2565
I00
sVcontains(Responsibilities)
p2566
I00
sVcontains(cancer)
p2567
I01
sVcontains(Application)
p2568
I00
sVcontains(covers)
p2569
I00
sVcontains(Systems)
p2570
I00
sVcontains(prediction)
p2571
I01
sVcontains(PostgreSQL)
p2572
I00
sVcontains(Management)
p2573
I00
sVcontains(collaborators)
p2574
I01
sVcontains(Helped)
p2575
I00
sVcontains(Java)
p2576
I00
sVcontains(play)
p2577
I01
sVcontains(drug)
p2578
I01
sVcontains(Directory)
p2579
I00
sVcontains(Image)
p2580
I01
sVcontains(Upload)
p2581
I00
sVcontains(workflow)
p2582
I00
sVcontains(patients.Auto)
p2583
I01
sVcontains(Worked)
p2584
I01
sVcontains(timely)
p2585
I00
sVcontains(ofdaily)
p2586
I01
sVcontains(wasconnected)
p2587
I01
sVcontains(iCloud)
p2588
I00
sVcontains(Biomedical)
p2589
I01
sVcontains(stroke)
p2590
I01
sVcontains(CRM)
p2591
I00
sVcontains(well)
p2592
I01
sVcontains(development)
p2593
I00
sVcontains(malfunctions)
p2594
I00
sVcontains(recorder)
p2595
I00
sVcontains(Domino)
p2596
I00
sVcontains(smartwatchSDKs)
p2597
I00
sVcontains(across)
p2598
I00
sVcontains(proficiency)
p2599
I01
sVcontains(Account)
p2600
I00
sVcontains(AJAX)
p2601
I00
sVcontains(existence)
p2602
I01
sVcontains(Devices)
p2603
I01
sVcontains(problem)
p2604
I00
sVcontains(quality)
p2605
I00
sVcontains(constraints)
p2606
I01
sVcontains(home)
p2607
I00
sVcontains(outcomes)
p2608
I01
sVcontains(applications)
p2609
I00
sVcontains(Mining)
p2610
I01
sVcontains(party)
p2611
I00
sVcontains(You)
p2612
I00
sVcontains(Administer)
p2613
I00
sVcontains(stress)
p2614
I01
sVcontains(responses)
p2615
I01
sVcontains(infection)
p2616
I00
sVcontains(necessary)
p2617
I01
sVcontains(fitted)
p2618
I01
sVcontains(health)
p2619
I01
sVcontains(Logistics)
p2620
I00
sVcontains(SDKs)
p2621
I00
sVcontains(support)
p2622
I00
sVcontains(Various)
p2623
I00
sVcontains(pending)
p2624
I00
sVcontains(This)
p2625
I01
sVcontains(Certified)
p2626
I00
sVcontains(matter)
p2627
I00
sVcontains(paralytic)
p2628
I01
sVcontains(Manager)
p2629
I01
sVcontains(training)
p2630
I01
sVcontains(out)
p2631
I00
sVcontains(T)
p2632
I00
sVcontains(reliable)
p2633
I01
sVcontains(Sync)
p2634
I00
sVcontains(wheel)
p2635
I00
sVcontains(In)
p2636
I00
sVcontains(road)
p2637
I00
sVcontains(Applications)
p2638
I00
sVcontains(models)
p2639
I01
sVcontains(research)
p2640
I01
sVcontains(prior)
p2641
I00
sVcontains(Speed)
p2642
I00
sVcontains(data)
p2643
I01
sVcontains(attention)
p2644
I00
sVcontains(beneficial)
p2645
I01
sVcontains(context-aware)
p2646
I00
sVcontains(contacts)
p2647
I00
sVcontains(switch)
p2648
I00
sVcontains(screen)
p2649
I01
sVcontains(Lotus)
p2650
I00
sVcontains(via)
p2651
I00
sVcontains(movement)
p2652
I01
sVcontains(Fit)
p2653
I00
sVcontains(Configure)
p2654
I00
sVcontains(therapy)
p2655
I01
sVcontains(reply)
p2656
I00
sVcontains(otherdepartments)
p2657
I00
sVcontains(issuance.Tagged)
p2658
I00
sVcontains(Gear/Gear)
p2659
I00
sVcontains(memory)
p2660
I01
sVcontains(charge)
p2661
I00
sVcontains(visitors)
p2662
I01
sVcontains(installation)
p2663
I00
sVcontains(Recordrproduces)
p2664
I00
sVcontains(Coordinated)
p2665
I00
sVcontains(special)
p2666
I00
sVcontains(Dell)
p2667
I00
sVcontains(Maintain)
p2668
I00
sVcontains(Evaluated)
p2669
I00
sVcontains(cabling)
p2670
I00
sVcontains(neural)
p2671
I01
sVcontains(solutions)
p2672
I00
sVcontains(andspace)
p2673
I01
sVcontains(Provided)
p2674
I00
sVcontains(API)
p2675
I00
sVcontains(Otherfeatures)
p2676
I00
sVcontains(Team)
p2677
I00
sVcontains(2013)
p2678
I00
sVcontains(requirements)
p2679
I00
sVcontains(Active)
p2680
I00
sVcontains(control)
p2681
I01
sVcontains(account)
p2682
I00
sVcontains(setup)
p2683
I00
sVcontains(capture)
p2684
I01
sVcontains(Support)
p2685
I00
sVcontains(flow)
p2686
I00
sVcontains(space)
p2687
I00
sVcontains(voluntaryelectroencephalogram)
p2688
I01
sVcontains(cost.Worked)
p2689
I00
sVcontains(workstation)
p2690
I00
sVcontains(diseases)
p2691
I01
sVcontains(designed)
p2692
I01
sVcontains(friends)
p2693
I00
sVcontains(Dial)
p2694
I00
sVcontains(ZeroIN)
p2695
I00
sVcontains(Recordr)
p2696
I00
sVcontains(office)
p2697
I00
sVcontains(blue)
p2698
I00
sVcontains(Renovation)
p2699
I00
sVcontains(Rails)
p2700
I00
sVcontains(filesto)
p2701
I00
sVcontains(iPad)
p2702
I00
sVcontains(Key)
p2703
I00
sVcontains(Desk)
p2704
I00
sVcontains(shows)
p2705
I01
sVcontains(maze)
p2706
I01
sVcontains(respond)
p2707
I00
sVcontains(Server)
p2708
I00
sVcontains(projects)
p2709
I00
sVcontains(undergone)
p2710
I00
sVcontains(connectivity)
p2711
I00
sVcontains(chronic)
p2712
I01
sVcontains(1)
p2713
I00
sVcontains(user)
p2714
I01
sVcontains(Integration)
p2715
I00
sVcontains(media)
p2716
I00
sVcontains(thatrequire)
p2717
I00
sVcontains(Remedy)
p2718
I00
sVcontains(resilience)
p2719
I01
sVcontains(Deployment)
p2720
I00
sVcontains(company)
p2721
I01
sVcontains(markers)
p2722
I01
sVcontains(email)
p2723
I00
sVcontains(My)
p2724
I01
sVcontains(Milling)
p2725
I00
sVcontains(management)
p2726
I00
sVcontains(XP)
p2727
I00
sVcontains(Motion)
p2728
I01
sVcontains(using)
p2729
I01
sVcontains(Git)
p2730
I00
sVcontains(assets)
p2731
I00
sVcontains(Manage)
p2732
I00
sVcontains(Tracking)
p2733
I01
sVcontains(first)
p2734
I00
sVcontains(infrastructure)
p2735
I00
sVcontains(Native)
p2736
I01
sVcontains(how-to\u2019s)
p2737
I00
sVcontains(locally)
p2738
I00
sVcontains(Presenting)
p2739
I01
sVcontains(AV)
p2740
I00
sVcontains(audio)
p2741
I00
sVcontains(Analysis)
p2742
I00
sVcontains(Badminton)
p2743
I00
sVcontains(upper)
p2744
I01
sVcontains(occlusion)
p2745
I01
sVcontains(sides)
p2746
I01
sVcontains(Acquisition)
p2747
I01
sVcontains(Neuroscience)
p2748
I01
sVcontains(circuit)
p2749
I01
sVcontains(laptops)
p2750
I00
sVcontains(minimum)
p2751
I00
sVcontains(market)
p2752
I01
sVcontains(basic)
p2753
I01
sVcontains(asset)
p2754
I00
sVcontains(Holmusk)
p2755
I01
sVcontains(improve)
p2756
I00
sVcontains(messaging)
p2757
I00
sVcontains(Programming)
p2758
I00
sVcontains(met)
p2759
I00
sVcontains(update)
p2760
I00
sVcontains(Global)
p2761
I00
sVcontains(It)
p2762
I00
sVcontains(services)
p2763
I00
sVcontains(spent)
p2764
I01
sVcontains(phone)
p2765
I00
sVcontains(eacharm)
p2766
I01
sVcontains(Supervised)
p2767
I00
sVcontains(voice.RecordrDecember)
p2768
I00
sVcontains(client)
p2769
I00
sVcontains(Medical)
p2770
I01
sVcontains(merit)
p2771
I00
sVcontains(E-Mail)
p2772
I00
sVcontains(5)
p2773
I00
sVcontains(machine)
p2774
I01
sVcontains(2010)
p2775
I01
sVcontains(conservation)
p2776
I01
sVcontains(recovery)
p2777
I00
sVcontains(Laptops)
p2778
I00
sVcontains(time)
p2779
I01
sVcontains(important)
p2780
I01
sVcontains(Microsoft)
p2781
I01
sVcontains(daily)
p2782
I01
sVcontains(requests)
p2783
I00
sVcontains(relativelyshort)
p2784
I01
sVcontains(employees)
p2785
I00
sVcontains(IT)
p2786
I00
sVcontains(andsoftware)
p2787
I00
sVcontains(Share)
p2788
I00
sVcontains(planning)
p2789
I00
sVcontains(Enrichment)
p2790
I01
sVcontains(back-end)
p2791
I00
sVcontains(mySPIN)
p2792
I00
sVcontains(LED)
p2793
I01
sVcontains(maintain)
p2794
I00
sVcontains(addressed)
p2795
I01
sVcontains(room)
p2796
I00
sVcontains(used)
p2797
I01
sVcontains(Full)
p2798
I01
sVcontains(score)
p2799
I00
sVcontains(eyes)
p2800
I00
sVcontains(Titanium)
p2801
I00
sVcontains(connected)
p2802
I01
sVcontains(future)
p2803
I01
sVcontains(drivers)
p2804
I00
sVcontains(Brain)
p2805
I01
sVcontains(ensure)
p2806
I00
sVcontains(ApplicationJanuary)
p2807
I00
sVcontains(printers)
p2808
I00
sVcontains(anti-virus)
p2809
I00
sVcontains(layout)
p2810
I00
sVcontains(REST)
p2811
I00
sVcontains(end)
p2812
I00
sVcontains(server)
p2813
I00
sVcontains(including)
p2814
I00
sVcontains(Educating)
p2815
I01
sVcontains(Mobile)
p2816
I00
sVcontains(Processing)
p2817
I01
sVcontains(related)
p2818
I00
sVcontains(event)
p2819
I00
sVcontains(US.Assisted)
p2820
I00
sVcontains(relevant)
p2821
I01
sVcontains(Notes)
p2822
I00
sVcontains(Qualysis)
p2823
I01
sVcontains(analog)
p2824
I01
sVcontains(satisfaction)
p2825
I00
sVcontains(Received)
p2826
I00
sVcontains(action)
p2827
I00
sVcontains(managing)
p2828
I01
sVcontains(ELVIS)
p2829
I01
sVcontains(Administration)
p2830
I00
sVcontains(BCI)
p2831
I01
sVcontains(technician)
p2832
I00
sVcontains(professional)
p2833
I01
sVcontains(effectiveness)
p2834
I00
sVcontains(CMG.com.ph)
p2835
I00
sVcontains(users)
p2836
I01
sVcontains(background)
p2837
I00
sVcontains(Ion)
p2838
I00
sVcontains(information)
p2839
I01
sVcontains(subjects)
p2840
I01
sVcontains(Office)
p2841
I01
sVcontains(works.Asian)
p2842
I00
sVcontains(Android)
p2843
I00
sVcontains(existing)
p2844
I00
sVcontains(carry)
p2845
I00
sVcontains(router)
p2846
I00
sVcontains(automatically)
p2847
I01
sVcontains(manufacturer)
p2848
I00
sVcontains(slowperformance)
p2849
I00
sVcontains(Dropbox)
p2850
I00
sVcontains(specialized)
p2851
I00
sVcontains(bilingual)
p2852
I01
sVcontains(Husbandry)
p2853
I01
sVcontains(required)
p2854
I00
sVcontains(includes)
p2855
I00
sVcontains(seamlessoperation)
p2856
I00
sVcontains(Statistics)
p2857
I00
sVcontains(even)
p2858
I00
sVcontains(Web/Mobile)
p2859
I00
sVcontains(Experience)
p2860
I00
sVcontains(creating)
p2861
I01
sVcontains(PCB)
p2862
I01
sVcontains(Configuredmodem)
p2863
I00
sVcontains(VPN)
p2864
I00
sVcontains(computer)
p2865
I01
sVcontains(SLA)
p2866
I00
sVcontains(DCSE)
p2867
I00
sVcontains(Matlab)
p2868
I01
sVcontains(Backup)
p2869
I00
sVcontains(Provide)
p2870
I00
sVcontains(animal)
p2871
I01
sVcontains(Asian)
p2872
I00
sVcontains(andimplementation)
p2873
I00
sVcontains(partners)
p2874
I01
sVcontains(tool)
p2875
I00
sVcontains(Python)
p2876
I00
sVcontains(Program)
p2877
I00
sVcontains(Auto)
p2878
I01
sVcontains(ableto)
p2879
I01
sVcontains(Real-time)
p2880
I01
sVcontains(devices)
p2881
I00
sVcontains(Event)
p2882
I00
sVcontains(Design)
p2883
I01
sVcontains(OEM)
p2884
I00
sVcontains(2009)
p2885
I01
sVcontains(SmartWatch)
p2886
I00
sVcontains(uses)
p2887
I01
sVcontains(normal)
p2888
I01
sVcontains(central)
p2889
I00
sVcontains(JSON)
p2890
I00
sVcontains(involved)
p2891
I00
sVcontains(SOAP)
p2892
I00
sVcontains(system)
p2893
I01
sVcontains(resolution)
p2894
I00
sVcontains(technical)
p2895
I00
sVcontains(SoundCloud)
p2896
I00
sVcontains(messages)
p2897
I00
sVcontains(Research)
p2898
I01
sVcontains(Objective-C)
p2899
I00
sVcontains(systemsfor)
p2900
I00
sVcontains(deploy)
p2901
I00
sVcontains(hardware)
p2902
I00
sVcontains(various)
p2903
I00
sVcontains(Troubleshooting)
p2904
I00
sVcontains(potentials)
p2905
I01
sVcontains(Lisp)
p2906
I00
sVcontains(identifying)
p2907
I01
sVcontains(colleagues.Provide)
p2908
I00
sVcontains(circuitry)
p2909
I01
sVcontains(distills)
p2910
I00
sVcontains(team)
p2911
I00
sVcontains(movements)
p2912
I01
sVcontains(Designed)
p2913
I01
sVcontains(operations)
p2914
I01
sVcontains(High)
p2915
I00
sVcontains(actionable)
p2916
I00
sVcontains(Web)
p2917
I00
sVcontains(Blackberry)
p2918
I00
sVcontains(documentation)
p2919
I00
sVcontains(Escalated)
p2920
I00
sVcontains(overseas.Manage)
p2921
I00
sVcontains(vendor)
p2922
I00
sVcontains(on-site)
p2923
I00
sVcontains(test)
p2924
I00
sVcontains(develop)
p2925
I00
sVcontains(studies)
p2926
I01
sVcontains(Expert)
p2927
I00
sVcontains(onsite)
p2928
I00
sVcontains(record)
p2929
I00
sVcontains(rodents)
p2930
I01
sVcontains(printer)
p2931
I00
sVcontains(CMG.com.phDecember)
p2932
I00
sVcontains(\u2013)
p2933
I00
sVcontains(items)
p2934
I00
sVcontains(events)
p2935
I00
sVcontains(telehealth)
p2936
I01
sVcontains(Characterization)
p2937
I00
sVcontains(biomarkers)
p2938
I01
sVcontains(upload)
p2939
I00
sVcontains(Capture)
p2940
I01
sVcontains(conducted)
p2941
I01
sVcontains(LabVIEW)
p2942
I01
sVcontains(laptop)
p2943
I00
sVcontains(\u2014)
p2944
I00
sVcontains(back)
p2945
I00
sVcontains(EEG)
p2946
I01
sVcontains(Take)
p2947
I00
sVcontains(Drive\u2122)
p2948
I00
sVcontains(information.Design)
p2949
I01
sVcontains(Install)
p2950
I00
sVcontains(andoffice)
p2951
I00
sVcontains(The)
p2952
I01
sVcontains(tackle)
p2953
I01
sVcontains(4)
p2954
I00
sVcontains(Toq)
p2955
I00
sVcontains(2011)
p2956
I01
sVcontains(spatial)
p2957
I01
sVcontains(mice)
p2958
I01
sVcontains(incoming)
p2959
I00
sVcontains(living)
p2960
I01
sVcontains(Nanofabrication)
p2961
I00
sVcontains(Startup-related)
p2962
I01
sVcontains(distractions)
p2963
I00
sVcontains(files)
p2964
I00
sVcontains(hands)
p2965
I00
sVcontains(byDell)
p2966
I00
sVcontains(inquiries)
p2967
I00
sVcontains(iTunes)
p2968
I00
sVcontains(mining)
p2969
I01
sVcontains(Biology)
p2970
I01
sVcontains(provisioning)
p2971
I00
sVcontains(content)
p2972
I00
sVcontains(Performed)
p2973
I00
sVcontains(tracking)
p2974
I01
sVcontains(new)
p2975
I00
sVcontains(preventive)
p2976
I00
sVcontains(Qualcomm)
p2977
I00
sVcontains(3)
p2978
I00
sVcontains(Facebook)
p2979
I00
sVcontains(vendors)
p2980
I00
sVcontains(interviews.SoFAB.com.phSeptember)
p2981
I00
sVcontains(regionally)
p2982
I00
sVcontains(chat)
p2983
I00
sVcontains(analytics)
p2984
I01
sVcontains(Leads)
p2985
I00
sVcontains(products)
p2986
I00
sVcontains(Using)
p2987
I01
sVcontains(Conduct)
p2988
I00
sVcontains(Common)
p2989
I00
sVcontains(ITadministration)
p2990
I00
sVcontains(100)
p2991
I00
sVcontains(project)
p2992
I00
sVcontains(Developer)
p2993
I00
sVcontains(optimal)
p2994
I01
sVcontains(resolved)
p2995
I00
sVcontains(easiest)
p2996
I00
sVcontains(standard)
p2997
I00
sVcontains(Monitor)
p2998
I00
sVcontains(e.g)
p2999
I00
sVcontains(restrictsincoming)
p3000
I00
sVcontains('Customer)
p3001
I00
sVcontains(andevents)
p3002
I00
sVcontains(motion)
p3003
I01
sVcontains(car)
p3004
I00
sVcontains(simply)
p3005
I00
sVcontains(Molecular)
p3006
I01
sVcontains('s)
p3007
I00
sVcontains(changes)
p3008
I01
sVcontains(keep)
p3009
I00
sVcontains(trials)
p3010
I01
sVcontains(organising)
p3011
I00
sVcontains(Operations)
p3012
I00
sVcontains(BMC)
p3013
I00
sVcontains(overall)
p3014
I00
sVcontains(Send)
p3015
I00
sVcontains(what)
p3016
I00
sVcontains(animals)
p3017
I01
sVcontains(1st)
p3018
I00
sVcontains(Samsung)
p3019
I00
sVcontains(coordinated)
p3020
I00
sVcontains(expansion)
p3021
I00
sVcontains(personal)
p3022
I00
sVcontains(Help)
p3023
I00
sVcontains(allows)
p3024
I00
sVcontains(detect)
p3025
I01
sVcontains(8)
p3026
I01
sVcontains(involvesconnecting)
p3027
I01
sVcontains(innovative)
p3028
I01
sVcontains(presentation)
p3029
I00
sVcontains(Stay)
p3030
I00
sVcontains(integration)
p3031
I00
sVcontains(tickets)
p3032
I00
sVcontains(awarded)
p3033
I00
sVcontains(iOS)
p3034
I00
sVcontains(level)
p3035
I00
sVcontains(Only)
p3036
I00
sVcontains(patients)
p3037
I01
sVcontains(parts)
p3038
I00
sVcontains(app)
p3039
I00
sVcontains(processes)
p3040
I00
sVcontains(video)
p3041
I00
sVcontains(replacement)
p3042
I00
sVcontains(service)
p3043
I00
sVcontains(Windows)
p3044
I00
sVcontains(December)
p3045
I01
sVcontains(HTML)
p3046
I00
sVcontains(Spider)
p3047
I00
sVcontains(dispatch)
p3048
I00
sVcontains(Labview)
p3049
I01
sVcontains(configure)
p3050
I00
sVcontains(drafting)
p3051
I00
sVcontains(issue)
p3052
I00
sVcontains(positive)
p3053
I01
sVcontains(issues)
p3054
I01
sVcontains(LABVIEW)
p3055
I01
sVcontains(Development)
p3056
I00
sVcontains(procurement)
p3057
I00
sVcontains(ITIL)
p3058
I00
sVcontains(Data)
p3059
I01
sVcontains(Enterprise)
p3060
I00
sVcontains(Club)
p3061
I00
sVcontains(contain)
p3062
I00
sVcontains(targeted)
p3063
I01
sVcontains(7)
p3064
I00
sVcontains(software)
p3065
I00
sVcontains(Wear)
p3066
I00
sVcontains(Services)
p3067
I00
sVcontains(Interface)
p3068
I01
sVcontains(updates)
p3069
I00
sVcontains(electrodes)
p3070
I01
sVcontains(radial)
p3071
I01
sVcontains(virus)
p3072
I00
sVcontains(arm)
p3073
I01
sVcontains('re)
p3074
I00
sVcontains(end-user)
p3075
I00
sVcontains(2nd)
p3076
I00
sVcontains(role)
p3077
I01
sVcontains(Infrastructure)
p3078
I00
sVcontains(storeroom)
p3079
I00
sVcontains(jQuery)
p3080
I00
sVcontains(sensors)
p3081
I01
sVcontains(subscribers)
p3082
I00
sVcontains(Sputtering)
p3083
I00
sVcontains(I)
p3084
I00
sVcontains(October)
p3085
I00
sVcontains(brain)
p3086
I01
sVcontains(modulation)
p3087
I01
sVcontains(resilientmodels)
p3088
I01
sVcontains(you)
p3089
I00
sVcontains(requires)
p3090
I01
sVcontains(presentations)
p3091
I01
sVcontains(visuallyevoked)
p3092
I01
sVcontains(JavaScript)
p3093
I00
sVcontains(signalingetc)
p3094
I01
sVcontains(AT)
p3095
I00
sVcontains(iWatch)
p3096
I00
sVcontains(Citrix)
p3097
I00
sVcontains(equipment)
p3098
I00
sVcontains(Pebble)
p3099
I00
sVcontains(learningand)
p3100
I01
sVcontains(renovation)
p3101
I00
sVcontains(Computer)
p3102
I01
sVcontains(greatly)
p3103
I01
sVcontains(perform)
p3104
I01
sVcontains(Present)
p3105
I00
sVcontains(Photoshop)
p3106
I01
sVcontains(teams)
p3107
I00
sVcontains(smartphoneto)
p3108
I00
sVcontains(two)
p3109
I01
sVcontains(analysis)
p3110
I01
sVcontains(performing)
p3111
I01
sVcontains(Architect)
p3112
I00
sVcontains(glowing)
p3113
I01
sVcontains(automaticallysync)
p3114
I00
sVcontains(Assist)
p3115
I00
sVcontains(conferencing)
p3116
I00
sVcontains(toidentify)
p3117
I01
sVcontains(LAN/WAN)
p3118
I00
sVcontains(Managed)
p3119
I00
sVcontains(safely)
p3120
I00
sVcontains(Ruby)
p3121
I00
sVcontains(stable)
p3122
I01
sVcontains(organisation)
p3123
I00
sVcontains(Excel)
p3124
I01
sVcontains(3rd)
p3125
I00
sVcontains(desktop)
p3126
I00
sVcontains(May)
p3127
I01
sVcontains(SoFAB)
p3128
I00
sVcontains(researchand)
p3129
I01
sVcontains(Technical)
p3130
I00
sVcontains(Training)
p3131
I00
sVcontains(tasks)
p3132
I01
sVcontains(IR)
p3133
I01
sVcontains(entry)
p3134
I01
sVcontains(platform)
p3135
I01
sVcontains(2012)
p3136
I00
sVcontains(tokeep)
p3137
I00
sVcontains(Hardware)
p3138
I00
sVcontains(interfacing)
p3139
I01
sVcontains(within)
p3140
I00
sVcontains(logistics)
p3141
I00
sVcontains(activities)
p3142
I01
sVcontains(native)
p3143
I00
sVcontains(maze.We)
p3144
I01
sVcontains(likeupgrades)
p3145
I00
sVcontains(systemTear)
p3146
I00
sVcontains(Coach)
p3147
I00
sVcontains(Functional)
p3148
I01
sVcontains(Photolithography)
p3149
I00
sVcontains(read)
p3150
I00
sVcontains(screens)
p3151
I00
sVcontains(Engineering)
p3152
I01
sVcontains(limb)
p3153
I01
sVcontains(researchers)
p3154
I01
sVcontains(Operating)
p3155
I00
sVcontains(analysisMarch)
p3156
I01
sVcontains(mouse)
p3157
I01
sVcontains(in)
p3158
I00
sVcontains(Handled)
p3159
I00
sVcontains(Service)
p3160
I00
sVcontains(train)
p3161
I01
sVcontains(Collaborate)
p3162
I00
sVcontains(network)
p3163
I00
sVcontains(Biomaterials)
p3164
I01
sVcontains(recordings)
p3165
I00
sVcontains(2)
p3166
I00
sVcontains(System)
p3167
I00
sVcontains(ITteams)
p3168
I00
sVcontains(Ops)
p3169
I01
sVcontains(high)
p3170
I00
sVcontains(Installation)
p3171
I00
sVcontains(SoFAB.com.ph)
p3172
I00
sVcontains(Exchange)
p3173
I00
sVcontains(processed)
p3174
I00
sVcontains(Sony)
p3175
I00
sVcontains(design)
p3176
I00
sVcontains(resulting)
p3177
I00
sVcontains(provide)
p3178
I01
sVcontains(Google)
p3179
I00
sVcontains(deployment.Imaged)
p3180
I00
sVcontains(voice)
p3181
I00
sVcontains(Mobile/Web)
p3182
I00
sVcontains(maintenance)
p3183
I00
sVcontains(find)
p3184
I00
sVcontains(audio/sound/voice)
p3185
I00
sVcontains(Vista)
p3186
I00
sVcontains(Software)
p3187
I00
sVcontains(EventOctober)
p3188
I00
sVcontains(backend)
p3189
I00
sVcontains(visualization)
p3190
I01
sVcontains(intelligent)
p3191
I00
sVcontains(relationship)
p3192
I00
sVcontains(constructed)
p3193
I01
sVcontains(track)
p3194
I01
sVcontains(toapproprieate)
p3195
I00
sVcontains(influence)
p3196
I01
sVcontains(customer)
p3197
I00
sS'6'
p3198
tp3199
asS'train_set'
p3200
(lp3201
(VHolmusk innovative telehealth platform uses data (analytics, visualization, prediction, signalingetc.) tackle chronic diseases influence positive health outcomes. My role Ops Manager involvesconnecting partners, collaborators users Startup-related tasks:creating presentations,market researchand managing daily operations company Presenting animal shows Husbandry animals Enrichment Educating visitors animal conservation Functional studies neural circuitry brain changes stress using resilientmodels. Neuroscience research stress resilience using animal models. Worked identifying biomarkers play important role targeted cancer therapy. Data mining toidentify biomarkers existence relevant drug responses targeted cancer therapy. Brain computer interfacing EEG modulation (Native bilingual proficiency)(Full professional proficiency)(Native bilingual proficiency)(Native bilingual proficiency)Designed constructed Brain Computer Interface (BCI) using LABVIEW ELVIS detect visuallyevoked potentials train users control glowing LED computer screen voluntaryelectroencephalogram (EEG) modulation. This BCI system requires two electrodes, relativelyshort training time user machine. This greatly beneficial paralytic patients.Auto tracking movement mouse maze using LabVIEW:May 2009 May 2010 Auto tracking movement mouse maze using LabVIEW: Designed constructed system automatically track movements mice 8 arm radial maze.We used IR sensors fitted sides arm maze connected PCB wasconnected computer LabVIEW. This maze designed perform studies spatial learningand memory rodents. The basic information necessary researchers entry mouse eacharm time spent mouse arm. Using analog circuit well LabVIEW ableto provide information.Design motion capture system upper limb movement analysisMarch 2011 December 2011 Design motion capture system upper limb movement analysis Designed optimal system track upper limb movement normal subjects performing activities ofdaily living using Qualysis Motion Tracking system addressed issues occlusion markers andspace constraints provide stable reliable system future trials conducted stroke patients Matlab Labview Biomedical Engineering Image Processing Microsoft Office Biomaterials Molecular Biology Medical Devices Microsoft Excel Medical Research Qualysis Motion Capture Data Mining Real-time Data Acquisition Photoshop
p3202
g646
tp3203
a(VKey Responsibilities Leads IT Operations provide 1st 2nd level end-user support hardware andsoftware applications. Conduct end user training IT products services. Coach develop colleagues.Provide specialized support organising end end IT logistics client events locally overseas.Manage tickets ensure SLA met. Key Responsibilities Provide end-user support hardware software applications, including Windows,Lotus Notes, Lotus Domino, Software Deployment, Blackberry, iOS Android. Install, configure,maintain, update IT hardware software. Collaborate Global Help Desk backend ITteams provide technical support. Administer improve LAN/WAN infrastructure. Support seamlessoperation video audio conferencing infrastructure services. Assist on-site presentation andevents, well special IT requests client teams. Manage procurement, vendor relationship ITadministration (e.g., asset management, documentation, workflow tracking). Collaborate central IT andoffice IT deploy projects locally regionally. Monitor IT processes & services effectiveness. Key Responsibilities Managed back-end IT operations. Configure test printers deployment.Imaged laptops new existing users. Performed quality test IT equipment prior issuance.Tagged upload assets CRM tool. Maintain IT storeroom server room. Key Responsibilities Handled technical issues Dell's corporate desktop laptop users via phone,email chat. Helped users resolved various computer issues blue screens, virus infection, slowperformance hardware related malfunctions. Performed preventive maintenance solutions likeupgrades, data back & recovery, anti-virus installation software updates. Evaluated computer systemsfor parts replacement processed onsite technician dispatch required. Dell Certified System Expert(DCSE) undergone training Microsoft Windows Vista, Microsoft Windows 7 computer systemTear Dell's Technical Training Program. Received 'Customer Experience 100 Club' byDell Global Support Services, awarded employees high customer satisfaction score. Key Responsibilities Provided technical support AT&T High Speed Dial subscribers US.Assisted end users network connectivity issues, technical service inquiries how-to\u2019s. Configuredmodem, router, switch printer setup basic home office network. Coordinated otherdepartments within organisation resulting timely issue resolution. Escalated problem tickets toapproprieate software vendor OEM. Office Renovation The project covers renovation existing office space expansion. I involved planning, design andimplementation Network IT Infrastructure (e.g. server room, network cabling, workstation layout).Supervised coordinated various 3rd party vendors carry works.Asian Spider EventOctober 2012 October 2013 Asian Spider Event In charge overall IT Logistics includes provisioning AV equipment standard cost.Worked organising team drafting event flow gathering IT requirements. Managed XP Operating Systems Technical Support Microsoft Exchange Active Directory Windows 7 Windows BMC Remedy Windows XP IT Service Management VPN System Administration Blackberry Enterprise Server Network Administration Troubleshooting Windows Server Software Installation Laptops Help Desk Support Computer Hardware Citrix ITIL Certified
p3204
g1284
tp3205
a(VNanofabrication Photolithography Sputtering Ion Milling Characterization Badminton Matlab Programming Data Analysis Java Python Common Lisp Statistics
p3206
g1922
tp3207
a(V- Mobile Applications development using native iOS Android. - Integration various smartwatchSDKs (Pebble, Samsung Gear/Gear Fit, Qualcomm Toq, Sony SmartWatch, Android Wear, iWatch) -Integration Auto manufacturer SDKs (mySPIN) - Web/Mobile Application Development - Various API integration Web Application Development Web Developer Team Management Systems Architect Mobile/Web Application Development ZeroIN ZeroIN first context-aware, intelligent messaging app car. It uses personal smartphoneto keep email distractions minimum, matter car you're in. Only messages important,contain actionable content merit attention read out, drivers simply respond voice \u2014 tokeep eyes road hands wheel. Stay connected what's important - ZeroIN restrictsincoming messages important contacts, distills content parts thatrequire attention. Take action safely \u2013 reply incoming pending action items via voice.RecordrDecember 2012 Present Recordr Recordr easiest audio/sound/voice recorder find. You recordings automaticallysync across devices iCloud. It even allows record play background! Otherfeatures includes: 1. Sync files via iTunes. 2. Share recordings via SoundCloud 3. Backup media filesto Dropbox account 4. Upload Google Drive\u2122 Account 5. Send friends via E-Mail. Recordrproduces high quality recordings used interviews.SoFAB.com.phSeptember 2010 Present SoFAB.com.ph CMG.com.phDecember 2010 Present CMG.com.ph SoFAB iPad ApplicationJanuary 2011 Present SoFAB iPad Application Ruby Rails Ruby Facebook API Objective-C AJAX jQuery Web Services iOS Developer JavaScript REST iOS Git Android PostgreSQL HTML 5 JSON Titanium SOAP
p3208
g2560
tp3209
a(VHolmusk innovative telehealth platform uses data (analytics, visualization, prediction, signalingetc.) tackle chronic diseases influence positive health outcomes. My role Ops Manager involvesconnecting partners, collaborators users Startup-related tasks:creating presentations,market researchand managing daily operations company Presenting animal shows Husbandry animals Enrichment Educating visitors animal conservation Functional studies neural circuitry brain changes stress using resilientmodels. Neuroscience research stress resilience using animal models. Worked identifying biomarkers play important role targeted cancer therapy. Data mining toidentify biomarkers existence relevant drug responses targeted cancer therapy. Brain computer interfacing EEG modulation (Native bilingual proficiency)(Full professional proficiency)(Native bilingual proficiency)(Native bilingual proficiency)Designed constructed Brain Computer Interface (BCI) using LABVIEW ELVIS detect visuallyevoked potentials train users control glowing LED computer screen voluntaryelectroencephalogram (EEG) modulation. This BCI system requires two electrodes, relativelyshort training time user machine. This greatly beneficial paralytic patients.Auto tracking movement mouse maze using LabVIEW:May 2009 May 2010 Auto tracking movement mouse maze using LabVIEW: Designed constructed system automatically track movements mice 8 arm radial maze.We used IR sensors fitted sides arm maze connected PCB wasconnected computer LabVIEW. This maze designed perform studies spatial learningand memory rodents. The basic information necessary researchers entry mouse eacharm time spent mouse arm. Using analog circuit well LabVIEW ableto provide information.Design motion capture system upper limb movement analysisMarch 2011 December 2011 Design motion capture system upper limb movement analysis Designed optimal system track upper limb movement normal subjects performing activities ofdaily living using Qualysis Motion Tracking system addressed issues occlusion markers andspace constraints provide stable reliable system future trials conducted stroke patients Matlab Labview Biomedical Engineering Image Processing Microsoft Office Biomaterials Molecular Biology Medical Devices Microsoft Excel Medical Research Qualysis Motion Capture Data Mining Real-time Data Acquisition Photoshop
p3210
g3198
tp3211
asS'feature_extractor'
p3212
ctextblob.classifiers
basic_extractor
p3213
sb.